
bin/kernel:     file format elf64-x86-64


Disassembly of section .ap_entry:

00000000000ff000 <ap_init_procedure>:
   ff000:	87 db                	xchg   %ebx,%ebx
   ff002:	8c c8                	mov    %cs,%eax
   ff004:	8e d8                	mov    %eax,%ds
   ff006:	c6 06 40             	movb   $0x40,(%rsi)
   ff009:	00 ff                	add    %bh,%bh
   ff00b:	0f 01 16             	lgdt   (%rsi)
   ff00e:	59                   	pop    %rcx
   ff00f:	00 66 b8             	add    %ah,-0x48(%rsi)
   ff012:	00 40 10             	add    %al,0x10(%rax)
   ff015:	00 0f                	add    %cl,(%rdi)
   ff017:	22 d8                	and    %al,%bl
   ff019:	0f 20 e0             	mov    %cr4,%rax
   ff01c:	66 83 c8 20          	or     $0x20,%ax
   ff020:	0f 22 e0             	mov    %rax,%cr4
   ff023:	66 b9 80 00          	mov    $0x80,%cx
   ff027:	00 c0                	add    %al,%al
   ff029:	0f 32                	rdmsr  
   ff02b:	66 0d 00 01          	or     $0x100,%ax
   ff02f:	00 00                	add    %al,(%rax)
   ff031:	0f 30                	wrmsr  
   ff033:	0f 20 c0             	mov    %cr0,%rax
   ff036:	66 0d 00 00          	or     $0x0,%ax
   ff03a:	00 80 0f 22 c0 f4    	add    %al,-0xb3fddf1(%rax)

00000000000ff040 <DarkCactus>:
	...

00000000000ff041 <APGDT64>:
	...

00000000000ff049 <APGDT64.Code>:
   ff049:	00 00                	add    %al,(%rax)
   ff04b:	00 00                	add    %al,(%rax)
   ff04d:	00 98 20 00 00 00    	add    %bl,0x20(%rax)

00000000000ff051 <APGDT64.Data>:
   ff051:	00 00                	add    %al,(%rax)
   ff053:	00 00                	add    %al,(%rax)
   ff055:	00 90 00 00 17 00    	add    %dl,0x170000(%rax)

00000000000ff059 <APGDT64.Pointer>:
   ff059:	17                   	(bad)  
   ff05a:	00 41 f0             	add    %al,-0x10(%rcx)
   ff05d:	0f                   	.byte 0xf
	...

Disassembly of section .boot:

0000000000100000 <header_start>:
  100000:	d6                   	(bad)  
  100001:	50                   	push   %rax
  100002:	52                   	push   %rdx
  100003:	e8 00 00 00 00       	callq  100008 <header_start+0x8>
  100008:	18 00                	sbb    %al,(%rax)
  10000a:	00 00                	add    %al,(%rax)
  10000c:	12 af ad 17 00 00    	adc    0x17ad(%rdi),%ch
  100012:	00 00                	add    %al,(%rax)
  100014:	08 00                	or     %al,(%rax)
	...

Disassembly of section .text:

0000000000101000 <start>:
  101000:	fa                   	cli    
  101001:	bc 02 a0 10 00       	mov    $0x10a002,%esp
  101006:	6a 00                	pushq  $0x0
  101008:	53                   	push   %rbx
  101009:	6a 00                	pushq  $0x0
  10100b:	50                   	push   %rax
  10100c:	89 df                	mov    %ebx,%edi
  10100e:	e8 83 00 00 00       	callq  101096 <is_multiboot2_bootloader>
  101013:	e8 8a 00 00 00       	callq  1010a2 <is_cpuid_supported>
  101018:	e8 9d 00 00 00       	callq  1010ba <is_longmode_supported>
  10101d:	e8 1f 00 00 00       	callq  101041 <setup_paging_tables>
  101022:	e8 44 00 00 00       	callq  10106b <enable_paging>
  101027:	0f 01 15 f8 3b 10 00 	lgdt   0x103bf8(%rip)        # 204c26 <kernel_end+0xf0c26>
  10102e:	66 b8 10 00          	mov    $0x10,%ax
  101032:	8e d8                	mov    %eax,%ds
  101034:	8e c0                	mov    %eax,%es
  101036:	8e e0                	mov    %eax,%fs
  101038:	8e e8                	mov    %eax,%gs
  10103a:	ea                   	(bad)  
  10103b:	7b 12                	jnp    10104f <setup_paging_tables+0xe>
  10103d:	10 00                	adc    %al,(%rax)
  10103f:	08 00                	or     %al,(%rax)

0000000000101041 <setup_paging_tables>:
  101041:	b8 00 60 10 00       	mov    $0x106000,%eax
  101046:	83 c8 03             	or     $0x3,%eax
  101049:	a3 00 50 10 00 b8 00 	movabs %eax,0x107000b800105000
  101050:	70 10 
  101052:	00 83 c8 03 a3 00    	add    %al,0xa303c8(%rbx)
  101058:	60                   	(bad)  
  101059:	10 00                	adc    %al,(%rax)
  10105b:	b8 00 00 00 00       	mov    $0x0,%eax
  101060:	0d 83 00 00 00       	or     $0x83,%eax
  101065:	a3 00 70 10 00 c3 b8 	movabs %eax,0x5000b8c300107000
  10106c:	00 50 

000000000010106b <enable_paging>:
  10106b:	b8 00 50 10 00       	mov    $0x105000,%eax
  101070:	0f 22 d8             	mov    %rax,%cr3
  101073:	0f 20 e0             	mov    %cr4,%rax
  101076:	83 c8 20             	or     $0x20,%eax
  101079:	0f 22 e0             	mov    %rax,%cr4
  10107c:	b9 80 00 00 c0       	mov    $0xc0000080,%ecx
  101081:	0f 32                	rdmsr  
  101083:	0d 00 01 00 00       	or     $0x100,%eax
  101088:	0f 30                	wrmsr  
  10108a:	0f 20 c0             	mov    %cr0,%rax
  10108d:	0d 00 00 00 80       	or     $0x80000000,%eax
  101092:	0f 22 c0             	mov    %rax,%cr0
  101095:	c3                   	retq   

0000000000101096 <is_multiboot2_bootloader>:
  101096:	3d 89 62 d7 36       	cmp    $0x36d76289,%eax
  10109b:	75 01                	jne    10109e <is_multiboot2_bootloader.no_multiboot>
  10109d:	c3                   	retq   

000000000010109e <is_multiboot2_bootloader.no_multiboot>:
  10109e:	b0 30                	mov    $0x30,%al
  1010a0:	eb 3a                	jmp    1010dc <error_handler>

00000000001010a2 <is_cpuid_supported>:
  1010a2:	9c                   	pushfq 
  1010a3:	58                   	pop    %rax
  1010a4:	89 c1                	mov    %eax,%ecx
  1010a6:	35 00 00 20 00       	xor    $0x200000,%eax
  1010ab:	50                   	push   %rax
  1010ac:	9d                   	popfq  
  1010ad:	9c                   	pushfq 
  1010ae:	58                   	pop    %rax
  1010af:	51                   	push   %rcx
  1010b0:	9d                   	popfq  
  1010b1:	31 c8                	xor    %ecx,%eax
  1010b3:	74 01                	je     1010b6 <is_cpuid_supported.no_cpuid>
  1010b5:	c3                   	retq   

00000000001010b6 <is_cpuid_supported.no_cpuid>:
  1010b6:	b0 37                	mov    $0x37,%al
  1010b8:	eb 22                	jmp    1010dc <error_handler>

00000000001010ba <is_longmode_supported>:
  1010ba:	b8 00 00 00 80       	mov    $0x80000000,%eax
  1010bf:	0f a2                	cpuid  
  1010c1:	3d 01 00 00 80       	cmp    $0x80000001,%eax
  1010c6:	72 10                	jb     1010d8 <is_longmode_supported.no_longmode>
  1010c8:	b8 01 00 00 80       	mov    $0x80000001,%eax
  1010cd:	0f a2                	cpuid  
  1010cf:	f7 c2 00 00 00 20    	test   $0x20000000,%edx
  1010d5:	74 01                	je     1010d8 <is_longmode_supported.no_longmode>
  1010d7:	c3                   	retq   

00000000001010d8 <is_longmode_supported.no_longmode>:
  1010d8:	b0 32                	mov    $0x32,%al
  1010da:	eb 00                	jmp    1010dc <error_handler>

00000000001010dc <error_handler>:
  1010dc:	c7 05 00 80 0b 00 45 	movl   $0x4f524f45,0xb8000(%rip)        # 1b90e6 <kernel_end+0xa50e6>
  1010e3:	4f 52 4f 
  1010e6:	c7 05 04 80 0b 00 52 	movl   $0x4f3a4f52,0xb8004(%rip)        # 1b90f4 <kernel_end+0xa50f4>
  1010ed:	4f 3a 4f 
  1010f0:	c7 05 08 80 0b 00 20 	movl   $0x4f204f20,0xb8008(%rip)        # 1b9102 <kernel_end+0xa5102>
  1010f7:	4f 20 4f 
  1010fa:	a2 0a 80 0b 00 f4 fa 	movabs %al,0x4c7faf4000b800a
  101101:	c7 04 

0000000000101100 <asm_double_fault_handler>:
  101100:	fa                   	cli    
  101101:	c7 04 25 00 80 0b 00 	movl   $0x2064,0xb8000
  101108:	64 20 00 00 
  10110c:	c7 04 25 04 80 0b 00 	movl   $0x2066,0xb8004
  101113:	66 20 00 00 
  101117:	c7 04 25 08 80 0b 00 	movl   $0x206c,0xb8008
  10111e:	6c 20 00 00 
  101122:	f4                   	hlt    
  101123:	48 cf                	iretq  

0000000000101125 <asm_debug_handler>:
  101125:	fa                   	cli    
  101126:	c7 04 25 00 80 0b 00 	movl   $0x61,0xb8000
  10112d:	61 00 00 00 
  101131:	c7 04 25 04 80 0b 00 	movl   $0x62,0xb8004
  101138:	62 00 00 00 
  10113c:	c7 04 25 08 80 0b 00 	movl   $0x63,0xb8008
  101143:	63 00 00 00 
  101147:	f4                   	hlt    
  101148:	48 cf                	iretq  

000000000010114a <asm_irq_common_handler>:
  10114a:	50                   	push   %rax
  10114b:	53                   	push   %rbx
  10114c:	51                   	push   %rcx
  10114d:	e8 74 19 00 00       	callq  102ac6 <irq_common_handler>
  101152:	59                   	pop    %rcx
  101153:	5b                   	pop    %rbx
  101154:	58                   	pop    %rax
  101155:	83 c4 08             	add    $0x8,%esp
  101158:	fb                   	sti    
  101159:	48 cf                	iretq  

000000000010115b <asm_isr_common_handler>:
  10115b:	50                   	push   %rax
  10115c:	53                   	push   %rbx
  10115d:	51                   	push   %rcx
  10115e:	e8 98 18 00 00       	callq  1029fb <isr_common_handler>
  101163:	59                   	pop    %rcx
  101164:	5b                   	pop    %rbx
  101165:	58                   	pop    %rax
  101166:	83 c4 10             	add    $0x10,%esp
  101169:	fb                   	sti    
  10116a:	48 cf                	iretq  

000000000010116c <asm_isr0>:
  10116c:	fa                   	cli    
  10116d:	6a 00                	pushq  $0x0
  10116f:	6a 00                	pushq  $0x0
  101171:	eb e8                	jmp    10115b <asm_isr_common_handler>

0000000000101173 <asm_isr1>:
  101173:	fa                   	cli    
  101174:	6a 00                	pushq  $0x0
  101176:	6a 01                	pushq  $0x1
  101178:	eb e1                	jmp    10115b <asm_isr_common_handler>

000000000010117a <asm_isr2>:
  10117a:	fa                   	cli    
  10117b:	6a 00                	pushq  $0x0
  10117d:	6a 02                	pushq  $0x2
  10117f:	eb da                	jmp    10115b <asm_isr_common_handler>

0000000000101181 <asm_isr3>:
  101181:	fa                   	cli    
  101182:	6a 00                	pushq  $0x0
  101184:	6a 03                	pushq  $0x3
  101186:	eb d3                	jmp    10115b <asm_isr_common_handler>

0000000000101188 <asm_isr4>:
  101188:	fa                   	cli    
  101189:	6a 00                	pushq  $0x0
  10118b:	6a 04                	pushq  $0x4
  10118d:	eb cc                	jmp    10115b <asm_isr_common_handler>

000000000010118f <asm_isr5>:
  10118f:	fa                   	cli    
  101190:	6a 00                	pushq  $0x0
  101192:	6a 05                	pushq  $0x5
  101194:	eb c5                	jmp    10115b <asm_isr_common_handler>

0000000000101196 <asm_isr6>:
  101196:	fa                   	cli    
  101197:	6a 00                	pushq  $0x0
  101199:	6a 06                	pushq  $0x6
  10119b:	eb be                	jmp    10115b <asm_isr_common_handler>

000000000010119d <asm_isr7>:
  10119d:	fa                   	cli    
  10119e:	6a 00                	pushq  $0x0
  1011a0:	6a 07                	pushq  $0x7
  1011a2:	eb b7                	jmp    10115b <asm_isr_common_handler>

00000000001011a4 <asm_isr8>:
  1011a4:	fa                   	cli    
  1011a5:	6a 08                	pushq  $0x8
  1011a7:	eb b2                	jmp    10115b <asm_isr_common_handler>

00000000001011a9 <asm_isr9>:
  1011a9:	fa                   	cli    
  1011aa:	6a 00                	pushq  $0x0
  1011ac:	6a 09                	pushq  $0x9
  1011ae:	eb ab                	jmp    10115b <asm_isr_common_handler>

00000000001011b0 <asm_isr10>:
  1011b0:	fa                   	cli    
  1011b1:	6a 0a                	pushq  $0xa
  1011b3:	eb a6                	jmp    10115b <asm_isr_common_handler>

00000000001011b5 <asm_isr11>:
  1011b5:	fa                   	cli    
  1011b6:	6a 0b                	pushq  $0xb
  1011b8:	eb a1                	jmp    10115b <asm_isr_common_handler>

00000000001011ba <asm_isr12>:
  1011ba:	fa                   	cli    
  1011bb:	6a 0c                	pushq  $0xc
  1011bd:	eb 9c                	jmp    10115b <asm_isr_common_handler>

00000000001011bf <asm_isr13>:
  1011bf:	fa                   	cli    
  1011c0:	6a 0d                	pushq  $0xd
  1011c2:	eb 97                	jmp    10115b <asm_isr_common_handler>

00000000001011c4 <asm_isr14>:
  1011c4:	fa                   	cli    
  1011c5:	6a 0e                	pushq  $0xe
  1011c7:	eb 92                	jmp    10115b <asm_isr_common_handler>

00000000001011c9 <asm_isr15>:
  1011c9:	fa                   	cli    
  1011ca:	6a 00                	pushq  $0x0
  1011cc:	6a 0f                	pushq  $0xf
  1011ce:	eb 8b                	jmp    10115b <asm_isr_common_handler>

00000000001011d0 <asm_isr16>:
  1011d0:	fa                   	cli    
  1011d1:	6a 00                	pushq  $0x0
  1011d3:	6a 10                	pushq  $0x10
  1011d5:	eb 84                	jmp    10115b <asm_isr_common_handler>

00000000001011d7 <asm_isr17>:
  1011d7:	fa                   	cli    
  1011d8:	6a 11                	pushq  $0x11
  1011da:	e9 7c ff ff ff       	jmpq   10115b <asm_isr_common_handler>

00000000001011df <asm_isr18>:
  1011df:	fa                   	cli    
  1011e0:	6a 00                	pushq  $0x0
  1011e2:	6a 12                	pushq  $0x12
  1011e4:	e9 72 ff ff ff       	jmpq   10115b <asm_isr_common_handler>

00000000001011e9 <asm_isr19>:
  1011e9:	fa                   	cli    
  1011ea:	6a 00                	pushq  $0x0
  1011ec:	6a 13                	pushq  $0x13
  1011ee:	e9 68 ff ff ff       	jmpq   10115b <asm_isr_common_handler>

00000000001011f3 <asm_isr20>:
  1011f3:	fa                   	cli    
  1011f4:	6a 00                	pushq  $0x0
  1011f6:	6a 14                	pushq  $0x14
  1011f8:	e9 5e ff ff ff       	jmpq   10115b <asm_isr_common_handler>

00000000001011fd <asm_isr21>:
  1011fd:	fa                   	cli    
  1011fe:	6a 00                	pushq  $0x0
  101200:	6a 15                	pushq  $0x15
  101202:	e9 54 ff ff ff       	jmpq   10115b <asm_isr_common_handler>

0000000000101207 <asm_isr22>:
  101207:	fa                   	cli    
  101208:	6a 00                	pushq  $0x0
  10120a:	6a 16                	pushq  $0x16
  10120c:	e9 4a ff ff ff       	jmpq   10115b <asm_isr_common_handler>

0000000000101211 <asm_isr23>:
  101211:	fa                   	cli    
  101212:	6a 00                	pushq  $0x0
  101214:	6a 17                	pushq  $0x17
  101216:	e9 40 ff ff ff       	jmpq   10115b <asm_isr_common_handler>

000000000010121b <asm_isr24>:
  10121b:	fa                   	cli    
  10121c:	6a 00                	pushq  $0x0
  10121e:	6a 18                	pushq  $0x18
  101220:	e9 36 ff ff ff       	jmpq   10115b <asm_isr_common_handler>

0000000000101225 <asm_isr25>:
  101225:	fa                   	cli    
  101226:	6a 00                	pushq  $0x0
  101228:	6a 19                	pushq  $0x19
  10122a:	e9 2c ff ff ff       	jmpq   10115b <asm_isr_common_handler>

000000000010122f <asm_isr26>:
  10122f:	fa                   	cli    
  101230:	6a 00                	pushq  $0x0
  101232:	6a 1a                	pushq  $0x1a
  101234:	e9 22 ff ff ff       	jmpq   10115b <asm_isr_common_handler>

0000000000101239 <asm_isr27>:
  101239:	fa                   	cli    
  10123a:	6a 00                	pushq  $0x0
  10123c:	6a 1b                	pushq  $0x1b
  10123e:	e9 18 ff ff ff       	jmpq   10115b <asm_isr_common_handler>

0000000000101243 <asm_isr28>:
  101243:	fa                   	cli    
  101244:	6a 00                	pushq  $0x0
  101246:	6a 1c                	pushq  $0x1c
  101248:	e9 0e ff ff ff       	jmpq   10115b <asm_isr_common_handler>

000000000010124d <asm_isr29>:
  10124d:	fa                   	cli    
  10124e:	6a 00                	pushq  $0x0
  101250:	6a 1d                	pushq  $0x1d
  101252:	e9 04 ff ff ff       	jmpq   10115b <asm_isr_common_handler>

0000000000101257 <asm_isr30>:
  101257:	fa                   	cli    
  101258:	6a 00                	pushq  $0x0
  10125a:	6a 1e                	pushq  $0x1e
  10125c:	e9 fa fe ff ff       	jmpq   10115b <asm_isr_common_handler>

0000000000101261 <asm_isr31>:
  101261:	fa                   	cli    
  101262:	6a 00                	pushq  $0x0
  101264:	6a 1f                	pushq  $0x1f
  101266:	e9 f0 fe ff ff       	jmpq   10115b <asm_isr_common_handler>

000000000010126b <asm_irq0>:
  10126b:	fa                   	cli    
  10126c:	6a 00                	pushq  $0x0
  10126e:	e9 d7 fe ff ff       	jmpq   10114a <asm_irq_common_handler>

0000000000101273 <asm_irq1>:
  101273:	fa                   	cli    
  101274:	6a 01                	pushq  $0x1
  101276:	e9 cf fe ff ff       	jmpq   10114a <asm_irq_common_handler>

000000000010127b <asm_longmode_entry>:
  10127b:	66 b8 10 00          	mov    $0x10,%ax
  10127f:	8e d8                	mov    %eax,%ds
  101281:	8e c0                	mov    %eax,%es
  101283:	8e e0                	mov    %eax,%fs
  101285:	8e e8                	mov    %eax,%gs
  101287:	66 b8 00 00          	mov    $0x0,%ax
  10128b:	8e d0                	mov    %eax,%ss
  10128d:	5f                   	pop    %rdi
  10128e:	5e                   	pop    %rsi
  10128f:	e8 35 13 00 00       	callq  1025c9 <kernel_longmode_entry>
  101294:	f4                   	hlt    

0000000000101295 <write_port>:
  101295:	55                   	push   %rbp
  101296:	48 89 e5             	mov    %rsp,%rbp
  101299:	48 83 ec 08          	sub    $0x8,%rsp
  10129d:	89 fa                	mov    %edi,%edx
  10129f:	89 f0                	mov    %esi,%eax
  1012a1:	66 89 55 fc          	mov    %dx,-0x4(%rbp)
  1012a5:	88 45 f8             	mov    %al,-0x8(%rbp)
  1012a8:	0f b6 45 f8          	movzbl -0x8(%rbp),%eax
  1012ac:	0f b7 55 fc          	movzwl -0x4(%rbp),%edx
  1012b0:	ee                   	out    %al,(%dx)
  1012b1:	90                   	nop
  1012b2:	c9                   	leaveq 
  1012b3:	c3                   	retq   

00000000001012b4 <read_port>:
  1012b4:	55                   	push   %rbp
  1012b5:	48 89 e5             	mov    %rsp,%rbp
  1012b8:	48 83 ec 18          	sub    $0x18,%rsp
  1012bc:	89 f8                	mov    %edi,%eax
  1012be:	66 89 45 ec          	mov    %ax,-0x14(%rbp)
  1012c2:	0f b7 45 ec          	movzwl -0x14(%rbp),%eax
  1012c6:	89 c2                	mov    %eax,%edx
  1012c8:	ec                   	in     (%dx),%al
  1012c9:	88 45 ff             	mov    %al,-0x1(%rbp)
  1012cc:	0f b6 45 ff          	movzbl -0x1(%rbp),%eax
  1012d0:	c9                   	leaveq 
  1012d1:	c3                   	retq   

00000000001012d2 <kernel_reboot>:
  1012d2:	55                   	push   %rbp
  1012d3:	48 89 e5             	mov    %rsp,%rbp
  1012d6:	48 83 ec 10          	sub    $0x10,%rsp
  1012da:	66 c7 45 f0 00 00    	movw   $0x0,-0x10(%rbp)
  1012e0:	48 c7 45 f2 00 00 00 	movq   $0x0,-0xe(%rbp)
  1012e7:	00 
  1012e8:	0f 01 5d f0          	lidt   -0x10(%rbp)
  1012ec:	cc                   	int3   
  1012ed:	90                   	nop
  1012ee:	c9                   	leaveq 
  1012ef:	c3                   	retq   

00000000001012f0 <__memset>:
  1012f0:	55                   	push   %rbp
  1012f1:	48 89 e5             	mov    %rsp,%rbp
  1012f4:	48 83 ec 28          	sub    $0x28,%rsp
  1012f8:	48 89 7d e8          	mov    %rdi,-0x18(%rbp)
  1012fc:	89 f0                	mov    %esi,%eax
  1012fe:	48 89 55 d8          	mov    %rdx,-0x28(%rbp)
  101302:	88 45 e4             	mov    %al,-0x1c(%rbp)
  101305:	48 c7 45 f8 00 00 00 	movq   $0x0,-0x8(%rbp)
  10130c:	00 
  10130d:	eb 16                	jmp    101325 <__memset+0x35>
  10130f:	48 8b 55 e8          	mov    -0x18(%rbp),%rdx
  101313:	48 8b 45 f8          	mov    -0x8(%rbp),%rax
  101317:	48 01 c2             	add    %rax,%rdx
  10131a:	0f b6 45 e4          	movzbl -0x1c(%rbp),%eax
  10131e:	88 02                	mov    %al,(%rdx)
  101320:	48 83 45 f8 01       	addq   $0x1,-0x8(%rbp)
  101325:	48 8b 45 f8          	mov    -0x8(%rbp),%rax
  101329:	48 3b 45 d8          	cmp    -0x28(%rbp),%rax
  10132d:	72 e0                	jb     10130f <__memset+0x1f>
  10132f:	90                   	nop
  101330:	c9                   	leaveq 
  101331:	c3                   	retq   

0000000000101332 <__memcpy>:
  101332:	55                   	push   %rbp
  101333:	48 89 e5             	mov    %rsp,%rbp
  101336:	48 83 ec 28          	sub    $0x28,%rsp
  10133a:	48 89 7d e8          	mov    %rdi,-0x18(%rbp)
  10133e:	48 89 75 e0          	mov    %rsi,-0x20(%rbp)
  101342:	48 89 55 d8          	mov    %rdx,-0x28(%rbp)
  101346:	48 c7 45 f8 00 00 00 	movq   $0x0,-0x8(%rbp)
  10134d:	00 
  10134e:	eb 20                	jmp    101370 <__memcpy+0x3e>
  101350:	48 8b 55 e8          	mov    -0x18(%rbp),%rdx
  101354:	48 8b 45 f8          	mov    -0x8(%rbp),%rax
  101358:	48 01 c2             	add    %rax,%rdx
  10135b:	48 8b 4d e0          	mov    -0x20(%rbp),%rcx
  10135f:	48 8b 45 f8          	mov    -0x8(%rbp),%rax
  101363:	48 01 c8             	add    %rcx,%rax
  101366:	0f b6 00             	movzbl (%rax),%eax
  101369:	88 02                	mov    %al,(%rdx)
  10136b:	48 83 45 f8 01       	addq   $0x1,-0x8(%rbp)
  101370:	48 8b 45 f8          	mov    -0x8(%rbp),%rax
  101374:	48 3b 45 d8          	cmp    -0x28(%rbp),%rax
  101378:	72 d6                	jb     101350 <__memcpy+0x1e>
  10137a:	90                   	nop
  10137b:	c9                   	leaveq 
  10137c:	c3                   	retq   

000000000010137d <strlen>:
  10137d:	55                   	push   %rbp
  10137e:	48 89 e5             	mov    %rsp,%rbp
  101381:	48 83 ec 18          	sub    $0x18,%rsp
  101385:	48 89 7d e8          	mov    %rdi,-0x18(%rbp)
  101389:	48 c7 45 f8 00 00 00 	movq   $0x0,-0x8(%rbp)
  101390:	00 
  101391:	eb 05                	jmp    101398 <strlen+0x1b>
  101393:	48 83 45 f8 01       	addq   $0x1,-0x8(%rbp)
  101398:	48 8b 55 e8          	mov    -0x18(%rbp),%rdx
  10139c:	48 8b 45 f8          	mov    -0x8(%rbp),%rax
  1013a0:	48 01 d0             	add    %rdx,%rax
  1013a3:	0f b6 00             	movzbl (%rax),%eax
  1013a6:	84 c0                	test   %al,%al
  1013a8:	75 e9                	jne    101393 <strlen+0x16>
  1013aa:	48 8b 45 f8          	mov    -0x8(%rbp),%rax
  1013ae:	c9                   	leaveq 
  1013af:	c3                   	retq   

00000000001013b0 <strings_match>:
  1013b0:	55                   	push   %rbp
  1013b1:	48 89 e5             	mov    %rsp,%rbp
  1013b4:	48 83 ec 30          	sub    $0x30,%rsp
  1013b8:	48 89 7d e8          	mov    %rdi,-0x18(%rbp)
  1013bc:	48 89 75 e0          	mov    %rsi,-0x20(%rbp)
  1013c0:	48 89 55 d8          	mov    %rdx,-0x28(%rbp)
  1013c4:	48 89 4d d0          	mov    %rcx,-0x30(%rbp)
  1013c8:	48 8b 45 e0          	mov    -0x20(%rbp),%rax
  1013cc:	48 3b 45 d0          	cmp    -0x30(%rbp),%rax
  1013d0:	74 07                	je     1013d9 <strings_match+0x29>
  1013d2:	b8 00 00 00 00       	mov    $0x0,%eax
  1013d7:	eb 45                	jmp    10141e <strings_match+0x6e>
  1013d9:	48 c7 45 f8 00 00 00 	movq   $0x0,-0x8(%rbp)
  1013e0:	00 
  1013e1:	eb 2c                	jmp    10140f <strings_match+0x5f>
  1013e3:	48 8b 55 e8          	mov    -0x18(%rbp),%rdx
  1013e7:	48 8b 45 f8          	mov    -0x8(%rbp),%rax
  1013eb:	48 01 d0             	add    %rdx,%rax
  1013ee:	0f b6 10             	movzbl (%rax),%edx
  1013f1:	48 8b 4d d8          	mov    -0x28(%rbp),%rcx
  1013f5:	48 8b 45 f8          	mov    -0x8(%rbp),%rax
  1013f9:	48 01 c8             	add    %rcx,%rax
  1013fc:	0f b6 00             	movzbl (%rax),%eax
  1013ff:	38 c2                	cmp    %al,%dl
  101401:	74 07                	je     10140a <strings_match+0x5a>
  101403:	b8 00 00 00 00       	mov    $0x0,%eax
  101408:	eb 14                	jmp    10141e <strings_match+0x6e>
  10140a:	48 83 45 f8 01       	addq   $0x1,-0x8(%rbp)
  10140f:	48 8b 45 f8          	mov    -0x8(%rbp),%rax
  101413:	48 3b 45 e0          	cmp    -0x20(%rbp),%rax
  101417:	72 ca                	jb     1013e3 <strings_match+0x33>
  101419:	b8 01 00 00 00       	mov    $0x1,%eax
  10141e:	c9                   	leaveq 
  10141f:	c3                   	retq   

0000000000101420 <is_char_alpha>:
  101420:	55                   	push   %rbp
  101421:	48 89 e5             	mov    %rsp,%rbp
  101424:	48 83 ec 08          	sub    $0x8,%rsp
  101428:	89 f8                	mov    %edi,%eax
  10142a:	88 45 fc             	mov    %al,-0x4(%rbp)
  10142d:	80 7d fc 40          	cmpb   $0x40,-0x4(%rbp)
  101431:	7e 06                	jle    101439 <is_char_alpha+0x19>
  101433:	80 7d fc 5a          	cmpb   $0x5a,-0x4(%rbp)
  101437:	7e 0c                	jle    101445 <is_char_alpha+0x25>
  101439:	80 7d fc 60          	cmpb   $0x60,-0x4(%rbp)
  10143d:	7e 0d                	jle    10144c <is_char_alpha+0x2c>
  10143f:	80 7d fc 7a          	cmpb   $0x7a,-0x4(%rbp)
  101443:	7f 07                	jg     10144c <is_char_alpha+0x2c>
  101445:	b8 01 00 00 00       	mov    $0x1,%eax
  10144a:	eb 05                	jmp    101451 <is_char_alpha+0x31>
  10144c:	b8 00 00 00 00       	mov    $0x0,%eax
  101451:	c9                   	leaveq 
  101452:	c3                   	retq   

0000000000101453 <parse_root_system_descriptor>:
  101453:	55                   	push   %rbp
  101454:	48 89 e5             	mov    %rsp,%rbp
  101457:	48 81 ec 90 00 00 00 	sub    $0x90,%rsp
  10145e:	48 89 bd 78 ff ff ff 	mov    %rdi,-0x88(%rbp)
  101465:	48 89 b5 70 ff ff ff 	mov    %rsi,-0x90(%rbp)
  10146c:	48 8b 85 78 ff ff ff 	mov    -0x88(%rbp),%rax
  101473:	0f b6 00             	movzbl (%rax),%eax
  101476:	3c 52                	cmp    $0x52,%al
  101478:	0f 85 d1 02 00 00    	jne    10174f <parse_root_system_descriptor+0x2fc>
  10147e:	48 8b 85 78 ff ff ff 	mov    -0x88(%rbp),%rax
  101485:	0f b6 40 01          	movzbl 0x1(%rax),%eax
  101489:	3c 53                	cmp    $0x53,%al
  10148b:	0f 85 be 02 00 00    	jne    10174f <parse_root_system_descriptor+0x2fc>
  101491:	48 8b 85 78 ff ff ff 	mov    -0x88(%rbp),%rax
  101498:	0f b6 40 02          	movzbl 0x2(%rax),%eax
  10149c:	3c 44                	cmp    $0x44,%al
  10149e:	0f 85 ab 02 00 00    	jne    10174f <parse_root_system_descriptor+0x2fc>
  1014a4:	48 8b 85 78 ff ff ff 	mov    -0x88(%rbp),%rax
  1014ab:	0f b6 40 03          	movzbl 0x3(%rax),%eax
  1014af:	3c 20                	cmp    $0x20,%al
  1014b1:	0f 85 98 02 00 00    	jne    10174f <parse_root_system_descriptor+0x2fc>
  1014b7:	48 8b 85 78 ff ff ff 	mov    -0x88(%rbp),%rax
  1014be:	0f b6 40 04          	movzbl 0x4(%rax),%eax
  1014c2:	3c 50                	cmp    $0x50,%al
  1014c4:	0f 85 85 02 00 00    	jne    10174f <parse_root_system_descriptor+0x2fc>
  1014ca:	48 8b 85 78 ff ff ff 	mov    -0x88(%rbp),%rax
  1014d1:	0f b6 40 05          	movzbl 0x5(%rax),%eax
  1014d5:	3c 54                	cmp    $0x54,%al
  1014d7:	0f 85 72 02 00 00    	jne    10174f <parse_root_system_descriptor+0x2fc>
  1014dd:	48 8b 85 78 ff ff ff 	mov    -0x88(%rbp),%rax
  1014e4:	0f b6 40 06          	movzbl 0x6(%rax),%eax
  1014e8:	3c 52                	cmp    $0x52,%al
  1014ea:	0f 85 5f 02 00 00    	jne    10174f <parse_root_system_descriptor+0x2fc>
  1014f0:	48 8b 85 78 ff ff ff 	mov    -0x88(%rbp),%rax
  1014f7:	0f b6 40 07          	movzbl 0x7(%rax),%eax
  1014fb:	3c 20                	cmp    $0x20,%al
  1014fd:	0f 85 4c 02 00 00    	jne    10174f <parse_root_system_descriptor+0x2fc>
  101503:	48 8b 85 78 ff ff ff 	mov    -0x88(%rbp),%rax
  10150a:	8b 40 10             	mov    0x10(%rax),%eax
  10150d:	89 c2                	mov    %eax,%edx
  10150f:	be 88 3c 10 00       	mov    $0x103c88,%esi
  101514:	bf 00 b0 10 00       	mov    $0x10b000,%edi
  101519:	b8 00 00 00 00       	mov    $0x0,%eax
  10151e:	e8 b0 18 00 00       	callq  102dd3 <console_write_fmt>
  101523:	48 8b 85 78 ff ff ff 	mov    -0x88(%rbp),%rax
  10152a:	8b 40 10             	mov    0x10(%rax),%eax
  10152d:	89 c7                	mov    %eax,%edi
  10152f:	48 8d 55 80          	lea    -0x80(%rbp),%rdx
  101533:	48 8d 45 88          	lea    -0x78(%rbp),%rax
  101537:	48 89 d1             	mov    %rdx,%rcx
  10153a:	48 89 c2             	mov    %rax,%rdx
  10153d:	be 00 00 00 00       	mov    $0x0,%esi
  101542:	e8 e4 0e 00 00       	callq  10242b <silly_page_map>
  101547:	48 89 45 e8          	mov    %rax,-0x18(%rbp)
  10154b:	48 8b 55 80          	mov    -0x80(%rbp),%rdx
  10154f:	48 8b 45 e8          	mov    -0x18(%rbp),%rax
  101553:	48 01 d0             	add    %rdx,%rax
  101556:	48 89 45 e0          	mov    %rax,-0x20(%rbp)
  10155a:	48 8b 45 e0          	mov    -0x20(%rbp),%rax
  10155e:	48 89 45 d8          	mov    %rax,-0x28(%rbp)
  101562:	48 8b 45 d8          	mov    -0x28(%rbp),%rax
  101566:	8b 40 04             	mov    0x4(%rax),%eax
  101569:	89 c0                	mov    %eax,%eax
  10156b:	48 83 e8 24          	sub    $0x24,%rax
  10156f:	48 c1 e8 02          	shr    $0x2,%rax
  101573:	89 45 d4             	mov    %eax,-0x2c(%rbp)
  101576:	48 8b 45 d8          	mov    -0x28(%rbp),%rax
  10157a:	48 83 c0 24          	add    $0x24,%rax
  10157e:	48 89 45 c8          	mov    %rax,-0x38(%rbp)
  101582:	48 c7 45 f8 00 00 00 	movq   $0x0,-0x8(%rbp)
  101589:	00 
  10158a:	e9 b1 01 00 00       	jmpq   101740 <parse_root_system_descriptor+0x2ed>
  10158f:	48 8b 45 f8          	mov    -0x8(%rbp),%rax
  101593:	48 8d 14 85 00 00 00 	lea    0x0(,%rax,4),%rdx
  10159a:	00 
  10159b:	48 8b 45 c8          	mov    -0x38(%rbp),%rax
  10159f:	48 01 d0             	add    %rdx,%rax
  1015a2:	8b 00                	mov    (%rax),%eax
  1015a4:	89 c0                	mov    %eax,%eax
  1015a6:	48 89 45 c0          	mov    %rax,-0x40(%rbp)
  1015aa:	48 8b 45 88          	mov    -0x78(%rbp),%rax
  1015ae:	48 8b 55 c0          	mov    -0x40(%rbp),%rdx
  1015b2:	48 29 c2             	sub    %rax,%rdx
  1015b5:	48 89 d0             	mov    %rdx,%rax
  1015b8:	48 89 45 b8          	mov    %rax,-0x48(%rbp)
  1015bc:	48 83 7d b8 00       	cmpq   $0x0,-0x48(%rbp)
  1015c1:	79 25                	jns    1015e8 <parse_root_system_descriptor+0x195>
  1015c3:	be b1 3c 10 00       	mov    $0x103cb1,%esi
  1015c8:	bf 00 b0 10 00       	mov    $0x10b000,%edi
  1015cd:	b8 00 00 00 00       	mov    $0x0,%eax
  1015d2:	e8 fc 17 00 00       	callq  102dd3 <console_write_fmt>
  1015d7:	be 00 b0 10 00       	mov    $0x10b000,%esi
  1015dc:	bf 10 11 11 00       	mov    $0x111110,%edi
  1015e1:	e8 81 20 00 00       	callq  103667 <redraw_vga_text_terminal_if_dirty>
  1015e6:	fa                   	cli    
  1015e7:	f4                   	hlt    
  1015e8:	48 8b 55 b8          	mov    -0x48(%rbp),%rdx
  1015ec:	48 8b 45 e8          	mov    -0x18(%rbp),%rax
  1015f0:	48 01 d0             	add    %rdx,%rax
  1015f3:	48 89 45 b0          	mov    %rax,-0x50(%rbp)
  1015f7:	48 8b 45 b0          	mov    -0x50(%rbp),%rax
  1015fb:	48 89 45 a8          	mov    %rax,-0x58(%rbp)
  1015ff:	48 8b 45 a8          	mov    -0x58(%rbp),%rax
  101603:	8b 10                	mov    (%rax),%edx
  101605:	8b 05 ed 2d 00 00    	mov    0x2ded(%rip),%eax        # 1043f8 <ACPI_MADT_SIGNATURE.1506>
  10160b:	39 c2                	cmp    %eax,%edx
  10160d:	0f 85 28 01 00 00    	jne    10173b <parse_root_system_descriptor+0x2e8>
  101613:	be c5 3c 10 00       	mov    $0x103cc5,%esi
  101618:	bf 00 b0 10 00       	mov    $0x10b000,%edi
  10161d:	b8 00 00 00 00       	mov    $0x0,%eax
  101622:	e8 ac 17 00 00       	callq  102dd3 <console_write_fmt>
  101627:	48 8b 45 a8          	mov    -0x58(%rbp),%rax
  10162b:	48 89 45 a0          	mov    %rax,-0x60(%rbp)
  10162f:	48 8b 45 a0          	mov    -0x60(%rbp),%rax
  101633:	8b 40 24             	mov    0x24(%rax),%eax
  101636:	89 c2                	mov    %eax,%edx
  101638:	48 8b 85 70 ff ff ff 	mov    -0x90(%rbp),%rax
  10163f:	48 89 50 08          	mov    %rdx,0x8(%rax)
  101643:	48 8b 45 a0          	mov    -0x60(%rbp),%rax
  101647:	48 83 c0 2c          	add    $0x2c,%rax
  10164b:	48 89 45 f0          	mov    %rax,-0x10(%rbp)
  10164f:	e9 ca 00 00 00       	jmpq   10171e <parse_root_system_descriptor+0x2cb>
  101654:	48 8b 45 f0          	mov    -0x10(%rbp),%rax
  101658:	0f b6 00             	movzbl (%rax),%eax
  10165b:	0f b6 c0             	movzbl %al,%eax
  10165e:	83 f8 01             	cmp    $0x1,%eax
  101661:	74 65                	je     1016c8 <parse_root_system_descriptor+0x275>
  101663:	83 f8 02             	cmp    $0x2,%eax
  101666:	0f 84 9b 00 00 00    	je     101707 <parse_root_system_descriptor+0x2b4>
  10166c:	85 c0                	test   %eax,%eax
  10166e:	0f 85 94 00 00 00    	jne    101708 <parse_root_system_descriptor+0x2b5>
  101674:	48 8b 45 f0          	mov    -0x10(%rbp),%rax
  101678:	48 89 45 98          	mov    %rax,-0x68(%rbp)
  10167c:	48 8b 45 98          	mov    -0x68(%rbp),%rax
  101680:	8b 40 04             	mov    0x4(%rax),%eax
  101683:	83 e0 01             	and    $0x1,%eax
  101686:	85 c0                	test   %eax,%eax
  101688:	75 25                	jne    1016af <parse_root_system_descriptor+0x25c>
  10168a:	be b1 3c 10 00       	mov    $0x103cb1,%esi
  10168f:	bf 00 b0 10 00       	mov    $0x10b000,%edi
  101694:	b8 00 00 00 00       	mov    $0x0,%eax
  101699:	e8 35 17 00 00       	callq  102dd3 <console_write_fmt>
  10169e:	be 00 b0 10 00       	mov    $0x10b000,%esi
  1016a3:	bf 10 11 11 00       	mov    $0x111110,%edi
  1016a8:	e8 ba 1f 00 00       	callq  103667 <redraw_vga_text_terminal_if_dirty>
  1016ad:	fa                   	cli    
  1016ae:	f4                   	hlt    
  1016af:	48 8b 85 70 ff ff ff 	mov    -0x90(%rbp),%rax
  1016b6:	8b 40 10             	mov    0x10(%rax),%eax
  1016b9:	8d 50 01             	lea    0x1(%rax),%edx
  1016bc:	48 8b 85 70 ff ff ff 	mov    -0x90(%rbp),%rax
  1016c3:	89 50 10             	mov    %edx,0x10(%rax)
  1016c6:	eb 40                	jmp    101708 <parse_root_system_descriptor+0x2b5>
  1016c8:	48 8b 45 f0          	mov    -0x10(%rbp),%rax
  1016cc:	48 89 45 90          	mov    %rax,-0x70(%rbp)
  1016d0:	48 8b 45 90          	mov    -0x70(%rbp),%rax
  1016d4:	0f b6 40 02          	movzbl 0x2(%rax),%eax
  1016d8:	84 c0                	test   %al,%al
  1016da:	75 15                	jne    1016f1 <parse_root_system_descriptor+0x29e>
  1016dc:	48 8b 45 90          	mov    -0x70(%rbp),%rax
  1016e0:	8b 40 04             	mov    0x4(%rax),%eax
  1016e3:	89 c2                	mov    %eax,%edx
  1016e5:	48 8b 85 70 ff ff ff 	mov    -0x90(%rbp),%rax
  1016ec:	48 89 10             	mov    %rdx,(%rax)
  1016ef:	eb 17                	jmp    101708 <parse_root_system_descriptor+0x2b5>
  1016f1:	be d8 3c 10 00       	mov    $0x103cd8,%esi
  1016f6:	bf 00 b0 10 00       	mov    $0x10b000,%edi
  1016fb:	b8 00 00 00 00       	mov    $0x0,%eax
  101700:	e8 ce 16 00 00       	callq  102dd3 <console_write_fmt>
  101705:	eb 01                	jmp    101708 <parse_root_system_descriptor+0x2b5>
  101707:	90                   	nop
  101708:	48 8b 45 f0          	mov    -0x10(%rbp),%rax
  10170c:	0f b6 40 01          	movzbl 0x1(%rax),%eax
  101710:	0f b6 d0             	movzbl %al,%edx
  101713:	48 8b 45 f0          	mov    -0x10(%rbp),%rax
  101717:	48 01 d0             	add    %rdx,%rax
  10171a:	48 89 45 f0          	mov    %rax,-0x10(%rbp)
  10171e:	48 8b 55 f0          	mov    -0x10(%rbp),%rdx
  101722:	48 8b 45 a0          	mov    -0x60(%rbp),%rax
  101726:	48 29 c2             	sub    %rax,%rdx
  101729:	48 8b 45 a0          	mov    -0x60(%rbp),%rax
  10172d:	8b 40 04             	mov    0x4(%rax),%eax
  101730:	89 c0                	mov    %eax,%eax
  101732:	48 39 c2             	cmp    %rax,%rdx
  101735:	0f 82 19 ff ff ff    	jb     101654 <parse_root_system_descriptor+0x201>
  10173b:	48 83 45 f8 01       	addq   $0x1,-0x8(%rbp)
  101740:	8b 45 d4             	mov    -0x2c(%rbp),%eax
  101743:	48 3b 45 f8          	cmp    -0x8(%rbp),%rax
  101747:	0f 87 42 fe ff ff    	ja     10158f <parse_root_system_descriptor+0x13c>
  10174d:	eb 14                	jmp    101763 <parse_root_system_descriptor+0x310>
  10174f:	be f9 3c 10 00       	mov    $0x103cf9,%esi
  101754:	bf 00 b0 10 00       	mov    $0x10b000,%edi
  101759:	b8 00 00 00 00       	mov    $0x0,%eax
  10175e:	e8 70 16 00 00       	callq  102dd3 <console_write_fmt>
  101763:	be 0b 3d 10 00       	mov    $0x103d0b,%esi
  101768:	bf 00 b0 10 00       	mov    $0x10b000,%edi
  10176d:	b8 00 00 00 00       	mov    $0x0,%eax
  101772:	e8 5c 16 00 00       	callq  102dd3 <console_write_fmt>
  101777:	90                   	nop
  101778:	c9                   	leaveq 
  101779:	c3                   	retq   

000000000010177a <ioapic_initalize>:
  10177a:	55                   	push   %rbp
  10177b:	48 89 e5             	mov    %rsp,%rbp
  10177e:	48 83 ec 08          	sub    $0x8,%rsp
  101782:	48 89 7d f8          	mov    %rdi,-0x8(%rbp)
  101786:	90                   	nop
  101787:	c9                   	leaveq 
  101788:	c3                   	retq   

0000000000101789 <lapic_initalize>:
  101789:	55                   	push   %rbp
  10178a:	48 89 e5             	mov    %rsp,%rbp
  10178d:	48 83 ec 20          	sub    $0x20,%rsp
  101791:	48 89 7d e8          	mov    %rdi,-0x18(%rbp)
  101795:	fa                   	cli    
  101796:	0f b6 05 5f 2c 00 00 	movzbl 0x2c5f(%rip),%eax        # 1043fc <PIC1_DATA_PORT.1560>
  10179d:	0f b6 c0             	movzbl %al,%eax
  1017a0:	be 20 00 00 00       	mov    $0x20,%esi
  1017a5:	89 c7                	mov    %eax,%edi
  1017a7:	e8 e9 fa ff ff       	callq  101295 <write_port>
  1017ac:	0f b6 05 4a 2c 00 00 	movzbl 0x2c4a(%rip),%eax        # 1043fd <PIC2_DATA_PORT.1561>
  1017b3:	0f b6 c0             	movzbl %al,%eax
  1017b6:	be 20 00 00 00       	mov    $0x20,%esi
  1017bb:	89 c7                	mov    %eax,%edi
  1017bd:	e8 d3 fa ff ff       	callq  101295 <write_port>
  1017c2:	0f b6 05 33 2c 00 00 	movzbl 0x2c33(%rip),%eax        # 1043fc <PIC1_DATA_PORT.1560>
  1017c9:	0f b6 c0             	movzbl %al,%eax
  1017cc:	be ff 00 00 00       	mov    $0xff,%esi
  1017d1:	89 c7                	mov    %eax,%edi
  1017d3:	e8 bd fa ff ff       	callq  101295 <write_port>
  1017d8:	0f b6 05 1e 2c 00 00 	movzbl 0x2c1e(%rip),%eax        # 1043fd <PIC2_DATA_PORT.1561>
  1017df:	0f b6 c0             	movzbl %al,%eax
  1017e2:	be ff 00 00 00       	mov    $0xff,%esi
  1017e7:	89 c7                	mov    %eax,%edi
  1017e9:	e8 a7 fa ff ff       	callq  101295 <write_port>
  1017ee:	48 8b 15 0b 2c 00 00 	mov    0x2c0b(%rip),%rdx        # 104400 <APIC_SIVR_OFFSET.1562>
  1017f5:	48 8b 45 e8          	mov    -0x18(%rbp),%rax
  1017f9:	48 01 d0             	add    %rdx,%rax
  1017fc:	48 89 45 f8          	mov    %rax,-0x8(%rbp)
  101800:	8b 05 02 2c 00 00    	mov    0x2c02(%rip),%eax        # 104408 <SIVR_ENABLE.1563>
  101806:	83 c8 1f             	or     $0x1f,%eax
  101809:	89 c2                	mov    %eax,%edx
  10180b:	48 8b 45 f8          	mov    -0x8(%rbp),%rax
  10180f:	89 10                	mov    %edx,(%rax)
  101811:	be 30 3d 10 00       	mov    $0x103d30,%esi
  101816:	bf 00 b0 10 00       	mov    $0x10b000,%edi
  10181b:	b8 00 00 00 00       	mov    $0x0,%eax
  101820:	e8 ae 15 00 00       	callq  102dd3 <console_write_fmt>
  101825:	fb                   	sti    
  101826:	be 58 3d 10 00       	mov    $0x103d58,%esi
  10182b:	bf 00 b0 10 00       	mov    $0x10b000,%edi
  101830:	b8 00 00 00 00       	mov    $0x0,%eax
  101835:	e8 99 15 00 00       	callq  102dd3 <console_write_fmt>
  10183a:	90                   	nop
  10183b:	c9                   	leaveq 
  10183c:	c3                   	retq   

000000000010183d <write_apic_register>:
  10183d:	55                   	push   %rbp
  10183e:	48 89 e5             	mov    %rsp,%rbp
  101841:	48 83 ec 20          	sub    $0x20,%rsp
  101845:	48 89 7d e8          	mov    %rdi,-0x18(%rbp)
  101849:	89 75 e4             	mov    %esi,-0x1c(%rbp)
  10184c:	48 8b 45 e8          	mov    -0x18(%rbp),%rax
  101850:	8b 55 e4             	mov    -0x1c(%rbp),%edx
  101853:	89 10                	mov    %edx,(%rax)
  101855:	48 8b 45 e8          	mov    -0x18(%rbp),%rax
  101859:	8b 00                	mov    (%rax),%eax
  10185b:	89 45 fc             	mov    %eax,-0x4(%rbp)
  10185e:	90                   	nop
  10185f:	c9                   	leaveq 
  101860:	c3                   	retq   

0000000000101861 <initalize_cpu>:
  101861:	55                   	push   %rbp
  101862:	48 89 e5             	mov    %rsp,%rbp
  101865:	48 83 ec 40          	sub    $0x40,%rsp
  101869:	48 89 7d c8          	mov    %rdi,-0x38(%rbp)
  10186d:	89 f1                	mov    %esi,%ecx
  10186f:	89 d0                	mov    %edx,%eax
  101871:	88 4d c4             	mov    %cl,-0x3c(%rbp)
  101874:	88 45 c0             	mov    %al,-0x40(%rbp)
  101877:	c7 45 e0 00 00 00 00 	movl   $0x0,-0x20(%rbp)
  10187e:	0f b6 05 8b 2b 00 00 	movzbl 0x2b8b(%rip),%eax        # 104410 <DELIVERY_MODE_INIT.1582>
  101885:	83 e0 07             	and    $0x7,%eax
  101888:	83 e0 07             	and    $0x7,%eax
  10188b:	89 c2                	mov    %eax,%edx
  10188d:	0f b6 45 e1          	movzbl -0x1f(%rbp),%eax
  101891:	83 e0 f8             	and    $0xfffffff8,%eax
  101894:	09 d0                	or     %edx,%eax
  101896:	88 45 e1             	mov    %al,-0x1f(%rbp)
  101899:	c7 45 d0 00 00 00 00 	movl   $0x0,-0x30(%rbp)
  1018a0:	0f b6 45 c4          	movzbl -0x3c(%rbp),%eax
  1018a4:	88 45 d3             	mov    %al,-0x2d(%rbp)
  1018a7:	48 8d 45 d0          	lea    -0x30(%rbp),%rax
  1018ab:	8b 00                	mov    (%rax),%eax
  1018ad:	89 45 ec             	mov    %eax,-0x14(%rbp)
  1018b0:	48 8d 45 e0          	lea    -0x20(%rbp),%rax
  1018b4:	8b 00                	mov    (%rax),%eax
  1018b6:	89 45 e8             	mov    %eax,-0x18(%rbp)
  1018b9:	8b 45 ec             	mov    -0x14(%rbp),%eax
  1018bc:	89 c2                	mov    %eax,%edx
  1018be:	be 78 3d 10 00       	mov    $0x103d78,%esi
  1018c3:	bf 00 b0 10 00       	mov    $0x10b000,%edi
  1018c8:	b8 00 00 00 00       	mov    $0x0,%eax
  1018cd:	e8 01 15 00 00       	callq  102dd3 <console_write_fmt>
  1018d2:	8b 45 e8             	mov    -0x18(%rbp),%eax
  1018d5:	89 c2                	mov    %eax,%edx
  1018d7:	be 87 3d 10 00       	mov    $0x103d87,%esi
  1018dc:	bf 00 b0 10 00       	mov    $0x10b000,%edi
  1018e1:	b8 00 00 00 00       	mov    $0x0,%eax
  1018e6:	e8 e8 14 00 00       	callq  102dd3 <console_write_fmt>
  1018eb:	66 87 db             	xchg   %bx,%bx
  1018ee:	48 8d 45 d0          	lea    -0x30(%rbp),%rax
  1018f2:	8b 00                	mov    (%rax),%eax
  1018f4:	48 8b 0d 1d 2b 00 00 	mov    0x2b1d(%rip),%rcx        # 104418 <APIC_ICR2_OFFSET.1577>
  1018fb:	48 8b 55 c8          	mov    -0x38(%rbp),%rdx
  1018ff:	48 01 ca             	add    %rcx,%rdx
  101902:	89 c6                	mov    %eax,%esi
  101904:	48 89 d7             	mov    %rdx,%rdi
  101907:	e8 31 ff ff ff       	callq  10183d <write_apic_register>
  10190c:	48 8d 45 e0          	lea    -0x20(%rbp),%rax
  101910:	8b 00                	mov    (%rax),%eax
  101912:	48 8b 0d 07 2b 00 00 	mov    0x2b07(%rip),%rcx        # 104420 <APIC_ICR1_OFFSET.1576>
  101919:	48 8b 55 c8          	mov    -0x38(%rbp),%rdx
  10191d:	48 01 ca             	add    %rcx,%rdx
  101920:	89 c6                	mov    %eax,%esi
  101922:	48 89 d7             	mov    %rdx,%rdi
  101925:	e8 13 ff ff ff       	callq  10183d <write_apic_register>
  10192a:	eb 14                	jmp    101940 <initalize_cpu+0xdf>
  10192c:	be 98 3d 10 00       	mov    $0x103d98,%esi
  101931:	bf 00 b0 10 00       	mov    $0x10b000,%edi
  101936:	b8 00 00 00 00       	mov    $0x0,%eax
  10193b:	e8 93 14 00 00       	callq  102dd3 <console_write_fmt>
  101940:	0f b6 45 e1          	movzbl -0x1f(%rbp),%eax
  101944:	83 e0 10             	and    $0x10,%eax
  101947:	84 c0                	test   %al,%al
  101949:	75 e1                	jne    10192c <initalize_cpu+0xcb>
  10194b:	48 c7 45 f8 00 00 00 	movq   $0x0,-0x8(%rbp)
  101952:	00 
  101953:	eb 06                	jmp    10195b <initalize_cpu+0xfa>
  101955:	90                   	nop
  101956:	48 83 45 f8 01       	addq   $0x1,-0x8(%rbp)
  10195b:	48 81 7d f8 fe ff 0f 	cmpq   $0xffffe,-0x8(%rbp)
  101962:	00 
  101963:	76 f0                	jbe    101955 <initalize_cpu+0xf4>
  101965:	0f b6 45 c0          	movzbl -0x40(%rbp),%eax
  101969:	88 45 e0             	mov    %al,-0x20(%rbp)
  10196c:	0f b6 05 b5 2a 00 00 	movzbl 0x2ab5(%rip),%eax        # 104428 <DELIVERY_MODE_SIPI.1583>
  101973:	83 e0 07             	and    $0x7,%eax
  101976:	83 e0 07             	and    $0x7,%eax
  101979:	89 c2                	mov    %eax,%edx
  10197b:	0f b6 45 e1          	movzbl -0x1f(%rbp),%eax
  10197f:	83 e0 f8             	and    $0xfffffff8,%eax
  101982:	09 d0                	or     %edx,%eax
  101984:	88 45 e1             	mov    %al,-0x1f(%rbp)
  101987:	48 8d 45 d0          	lea    -0x30(%rbp),%rax
  10198b:	8b 00                	mov    (%rax),%eax
  10198d:	48 8b 0d 84 2a 00 00 	mov    0x2a84(%rip),%rcx        # 104418 <APIC_ICR2_OFFSET.1577>
  101994:	48 8b 55 c8          	mov    -0x38(%rbp),%rdx
  101998:	48 01 ca             	add    %rcx,%rdx
  10199b:	89 c6                	mov    %eax,%esi
  10199d:	48 89 d7             	mov    %rdx,%rdi
  1019a0:	e8 98 fe ff ff       	callq  10183d <write_apic_register>
  1019a5:	48 8d 45 e0          	lea    -0x20(%rbp),%rax
  1019a9:	8b 00                	mov    (%rax),%eax
  1019ab:	48 8b 0d 6e 2a 00 00 	mov    0x2a6e(%rip),%rcx        # 104420 <APIC_ICR1_OFFSET.1576>
  1019b2:	48 8b 55 c8          	mov    -0x38(%rbp),%rdx
  1019b6:	48 01 ca             	add    %rcx,%rdx
  1019b9:	89 c6                	mov    %eax,%esi
  1019bb:	48 89 d7             	mov    %rdx,%rdi
  1019be:	e8 7a fe ff ff       	callq  10183d <write_apic_register>
  1019c3:	48 c7 45 f0 00 00 00 	movq   $0x0,-0x10(%rbp)
  1019ca:	00 
  1019cb:	eb 06                	jmp    1019d3 <initalize_cpu+0x172>
  1019cd:	90                   	nop
  1019ce:	48 83 45 f0 01       	addq   $0x1,-0x10(%rbp)
  1019d3:	48 81 7d f0 fe ff 0f 	cmpq   $0xffffe,-0x10(%rbp)
  1019da:	00 
  1019db:	76 f0                	jbe    1019cd <initalize_cpu+0x16c>
  1019dd:	48 8d 45 d0          	lea    -0x30(%rbp),%rax
  1019e1:	8b 00                	mov    (%rax),%eax
  1019e3:	48 8b 0d 2e 2a 00 00 	mov    0x2a2e(%rip),%rcx        # 104418 <APIC_ICR2_OFFSET.1577>
  1019ea:	48 8b 55 c8          	mov    -0x38(%rbp),%rdx
  1019ee:	48 01 ca             	add    %rcx,%rdx
  1019f1:	89 c6                	mov    %eax,%esi
  1019f3:	48 89 d7             	mov    %rdx,%rdi
  1019f6:	e8 42 fe ff ff       	callq  10183d <write_apic_register>
  1019fb:	48 8d 45 e0          	lea    -0x20(%rbp),%rax
  1019ff:	8b 00                	mov    (%rax),%eax
  101a01:	48 8b 0d 18 2a 00 00 	mov    0x2a18(%rip),%rcx        # 104420 <APIC_ICR1_OFFSET.1576>
  101a08:	48 8b 55 c8          	mov    -0x38(%rbp),%rdx
  101a0c:	48 01 ca             	add    %rcx,%rdx
  101a0f:	89 c6                	mov    %eax,%esi
  101a11:	48 89 d7             	mov    %rdx,%rdi
  101a14:	e8 24 fe ff ff       	callq  10183d <write_apic_register>
  101a19:	90                   	nop
  101a1a:	c9                   	leaveq 
  101a1b:	c3                   	retq   

0000000000101a1c <legacy_pic8259_initalize>:
  101a1c:	55                   	push   %rbp
  101a1d:	48 89 e5             	mov    %rsp,%rbp
  101a20:	0f b6 05 0a 2a 00 00 	movzbl 0x2a0a(%rip),%eax        # 104431 <ICW1_INIT_CASCADED.1628>
  101a27:	0f b6 d0             	movzbl %al,%edx
  101a2a:	0f b6 05 01 2a 00 00 	movzbl 0x2a01(%rip),%eax        # 104432 <PIC1_COMMAND_PORT.1624>
  101a31:	0f b6 c0             	movzbl %al,%eax
  101a34:	89 d6                	mov    %edx,%esi
  101a36:	89 c7                	mov    %eax,%edi
  101a38:	e8 58 f8 ff ff       	callq  101295 <write_port>
  101a3d:	0f b6 05 ed 29 00 00 	movzbl 0x29ed(%rip),%eax        # 104431 <ICW1_INIT_CASCADED.1628>
  101a44:	0f b6 d0             	movzbl %al,%edx
  101a47:	0f b6 05 e5 29 00 00 	movzbl 0x29e5(%rip),%eax        # 104433 <PIC2_COMMAND_PORT.1625>
  101a4e:	0f b6 c0             	movzbl %al,%eax
  101a51:	89 d6                	mov    %edx,%esi
  101a53:	89 c7                	mov    %eax,%edi
  101a55:	e8 3b f8 ff ff       	callq  101295 <write_port>
  101a5a:	0f b6 05 d3 29 00 00 	movzbl 0x29d3(%rip),%eax        # 104434 <ICW2_PIC1_IRQ_NUMBER_BEGIN.1629>
  101a61:	0f b6 d0             	movzbl %al,%edx
  101a64:	0f b6 05 ca 29 00 00 	movzbl 0x29ca(%rip),%eax        # 104435 <PIC1_DATA_PORT.1626>
  101a6b:	0f b6 c0             	movzbl %al,%eax
  101a6e:	89 d6                	mov    %edx,%esi
  101a70:	89 c7                	mov    %eax,%edi
  101a72:	e8 1e f8 ff ff       	callq  101295 <write_port>
  101a77:	0f b6 05 b8 29 00 00 	movzbl 0x29b8(%rip),%eax        # 104436 <ICW2_PIC2_IRQ_NUMBER_BEGIN.1630>
  101a7e:	0f b6 d0             	movzbl %al,%edx
  101a81:	0f b6 05 af 29 00 00 	movzbl 0x29af(%rip),%eax        # 104437 <PIC2_DATA_PORT.1627>
  101a88:	0f b6 c0             	movzbl %al,%eax
  101a8b:	89 d6                	mov    %edx,%esi
  101a8d:	89 c7                	mov    %eax,%edi
  101a8f:	e8 01 f8 ff ff       	callq  101295 <write_port>
  101a94:	0f b6 05 9d 29 00 00 	movzbl 0x299d(%rip),%eax        # 104438 <ICW3_PIC1_IRQ_LINE_2.1631>
  101a9b:	0f b6 d0             	movzbl %al,%edx
  101a9e:	0f b6 05 90 29 00 00 	movzbl 0x2990(%rip),%eax        # 104435 <PIC1_DATA_PORT.1626>
  101aa5:	0f b6 c0             	movzbl %al,%eax
  101aa8:	89 d6                	mov    %edx,%esi
  101aaa:	89 c7                	mov    %eax,%edi
  101aac:	e8 e4 f7 ff ff       	callq  101295 <write_port>
  101ab1:	0f b6 05 81 29 00 00 	movzbl 0x2981(%rip),%eax        # 104439 <ICW3_PIC2_IRQ_LINE_2.1632>
  101ab8:	0f b6 d0             	movzbl %al,%edx
  101abb:	0f b6 05 75 29 00 00 	movzbl 0x2975(%rip),%eax        # 104437 <PIC2_DATA_PORT.1627>
  101ac2:	0f b6 c0             	movzbl %al,%eax
  101ac5:	89 d6                	mov    %edx,%esi
  101ac7:	89 c7                	mov    %eax,%edi
  101ac9:	e8 c7 f7 ff ff       	callq  101295 <write_port>
  101ace:	0f b6 05 65 29 00 00 	movzbl 0x2965(%rip),%eax        # 10443a <ICW4_8068.1633>
  101ad5:	0f b6 d0             	movzbl %al,%edx
  101ad8:	0f b6 05 56 29 00 00 	movzbl 0x2956(%rip),%eax        # 104435 <PIC1_DATA_PORT.1626>
  101adf:	0f b6 c0             	movzbl %al,%eax
  101ae2:	89 d6                	mov    %edx,%esi
  101ae4:	89 c7                	mov    %eax,%edi
  101ae6:	e8 aa f7 ff ff       	callq  101295 <write_port>
  101aeb:	0f b6 05 48 29 00 00 	movzbl 0x2948(%rip),%eax        # 10443a <ICW4_8068.1633>
  101af2:	0f b6 d0             	movzbl %al,%edx
  101af5:	0f b6 05 3b 29 00 00 	movzbl 0x293b(%rip),%eax        # 104437 <PIC2_DATA_PORT.1627>
  101afc:	0f b6 c0             	movzbl %al,%eax
  101aff:	89 d6                	mov    %edx,%esi
  101b01:	89 c7                	mov    %eax,%edi
  101b03:	e8 8d f7 ff ff       	callq  101295 <write_port>
  101b08:	0f b6 05 26 29 00 00 	movzbl 0x2926(%rip),%eax        # 104435 <PIC1_DATA_PORT.1626>
  101b0f:	0f b6 c0             	movzbl %al,%eax
  101b12:	be 20 00 00 00       	mov    $0x20,%esi
  101b17:	89 c7                	mov    %eax,%edi
  101b19:	e8 77 f7 ff ff       	callq  101295 <write_port>
  101b1e:	0f b6 05 12 29 00 00 	movzbl 0x2912(%rip),%eax        # 104437 <PIC2_DATA_PORT.1627>
  101b25:	0f b6 c0             	movzbl %al,%eax
  101b28:	be 20 00 00 00       	mov    $0x20,%esi
  101b2d:	89 c7                	mov    %eax,%edi
  101b2f:	e8 61 f7 ff ff       	callq  101295 <write_port>
  101b34:	0f b6 05 fa 28 00 00 	movzbl 0x28fa(%rip),%eax        # 104435 <PIC1_DATA_PORT.1626>
  101b3b:	0f b6 c0             	movzbl %al,%eax
  101b3e:	be fd 00 00 00       	mov    $0xfd,%esi
  101b43:	89 c7                	mov    %eax,%edi
  101b45:	e8 4b f7 ff ff       	callq  101295 <write_port>
  101b4a:	0f b6 05 e6 28 00 00 	movzbl 0x28e6(%rip),%eax        # 104437 <PIC2_DATA_PORT.1627>
  101b51:	0f b6 c0             	movzbl %al,%eax
  101b54:	be ff 00 00 00       	mov    $0xff,%esi
  101b59:	89 c7                	mov    %eax,%edi
  101b5b:	e8 35 f7 ff ff       	callq  101295 <write_port>
  101b60:	be bb 3d 10 00       	mov    $0x103dbb,%esi
  101b65:	bf 00 b0 10 00       	mov    $0x10b000,%edi
  101b6a:	b8 00 00 00 00       	mov    $0x0,%eax
  101b6f:	e8 5f 12 00 00       	callq  102dd3 <console_write_fmt>
  101b74:	90                   	nop
  101b75:	5d                   	pop    %rbp
  101b76:	c3                   	retq   

0000000000101b77 <legacy_pit_initialize>:
  101b77:	55                   	push   %rbp
  101b78:	48 89 e5             	mov    %rsp,%rbp
  101b7b:	48 83 ec 10          	sub    $0x10,%rsp
  101b7f:	8b 05 b7 28 00 00    	mov    0x28b7(%rip),%eax        # 10443c <PIT_DIVISOR.1638>
  101b85:	88 45 ff             	mov    %al,-0x1(%rbp)
  101b88:	8b 05 ae 28 00 00    	mov    0x28ae(%rip),%eax        # 10443c <PIT_DIVISOR.1638>
  101b8e:	c1 e8 08             	shr    $0x8,%eax
  101b91:	88 45 fe             	mov    %al,-0x2(%rbp)
  101b94:	8b 05 a6 28 00 00    	mov    0x28a6(%rip),%eax        # 104440 <PIT_COMMAND_REPEATING_MODE.1637>
  101b9a:	0f b6 d0             	movzbl %al,%edx
  101b9d:	0f b6 05 a0 28 00 00 	movzbl 0x28a0(%rip),%eax        # 104444 <PIT_COMMAND_PORT.1642>
  101ba4:	0f b6 c0             	movzbl %al,%eax
  101ba7:	89 d6                	mov    %edx,%esi
  101ba9:	89 c7                	mov    %eax,%edi
  101bab:	e8 e5 f6 ff ff       	callq  101295 <write_port>
  101bb0:	0f b6 55 ff          	movzbl -0x1(%rbp),%edx
  101bb4:	0f b6 05 8a 28 00 00 	movzbl 0x288a(%rip),%eax        # 104445 <PIT_DATA_PORT0.1639>
  101bbb:	0f b6 c0             	movzbl %al,%eax
  101bbe:	89 d6                	mov    %edx,%esi
  101bc0:	89 c7                	mov    %eax,%edi
  101bc2:	e8 ce f6 ff ff       	callq  101295 <write_port>
  101bc7:	0f b6 55 fe          	movzbl -0x2(%rbp),%edx
  101bcb:	0f b6 05 73 28 00 00 	movzbl 0x2873(%rip),%eax        # 104445 <PIT_DATA_PORT0.1639>
  101bd2:	0f b6 c0             	movzbl %al,%eax
  101bd5:	89 d6                	mov    %edx,%esi
  101bd7:	89 c7                	mov    %eax,%edi
  101bd9:	e8 b7 f6 ff ff       	callq  101295 <write_port>
  101bde:	be cf 3d 10 00       	mov    $0x103dcf,%esi
  101be3:	bf 00 b0 10 00       	mov    $0x10b000,%edi
  101be8:	b8 00 00 00 00       	mov    $0x0,%eax
  101bed:	e8 e1 11 00 00       	callq  102dd3 <console_write_fmt>
  101bf2:	90                   	nop
  101bf3:	c9                   	leaveq 
  101bf4:	c3                   	retq   

0000000000101bf5 <idt_install_interrupt>:
  101bf5:	55                   	push   %rbp
  101bf6:	48 89 e5             	mov    %rsp,%rbp
  101bf9:	48 83 ec 10          	sub    $0x10,%rsp
  101bfd:	89 7d fc             	mov    %edi,-0x4(%rbp)
  101c00:	48 89 75 f0          	mov    %rsi,-0x10(%rbp)
  101c04:	48 8b 45 f0          	mov    -0x10(%rbp),%rax
  101c08:	89 c2                	mov    %eax,%edx
  101c0a:	8b 45 fc             	mov    -0x4(%rbp),%eax
  101c0d:	48 c1 e0 04          	shl    $0x4,%rax
  101c11:	48 05 40 11 11 00    	add    $0x111140,%rax
  101c17:	66 89 10             	mov    %dx,(%rax)
  101c1a:	48 8b 45 f0          	mov    -0x10(%rbp),%rax
  101c1e:	48 c1 e8 10          	shr    $0x10,%rax
  101c22:	89 c2                	mov    %eax,%edx
  101c24:	8b 45 fc             	mov    -0x4(%rbp),%eax
  101c27:	48 c1 e0 04          	shl    $0x4,%rax
  101c2b:	48 05 46 11 11 00    	add    $0x111146,%rax
  101c31:	66 89 10             	mov    %dx,(%rax)
  101c34:	48 8b 45 f0          	mov    -0x10(%rbp),%rax
  101c38:	48 c1 e8 20          	shr    $0x20,%rax
  101c3c:	89 c2                	mov    %eax,%edx
  101c3e:	8b 45 fc             	mov    -0x4(%rbp),%eax
  101c41:	48 c1 e0 04          	shl    $0x4,%rax
  101c45:	48 05 48 11 11 00    	add    $0x111148,%rax
  101c4b:	89 10                	mov    %edx,(%rax)
  101c4d:	48 8b 05 f4 27 00 00 	mov    0x27f4(%rip),%rax        # 104448 <PRESENT_BIT.1651>
  101c54:	89 c2                	mov    %eax,%edx
  101c56:	48 8b 05 f3 27 00 00 	mov    0x27f3(%rip),%rax        # 104450 <TYPE_INTERRUPT_GATE_64.1653>
  101c5d:	09 c2                	or     %eax,%edx
  101c5f:	48 8b 05 f2 27 00 00 	mov    0x27f2(%rip),%rax        # 104458 <PRIVILEGE_LEVEL_0.1649>
  101c66:	09 c2                	or     %eax,%edx
  101c68:	8b 45 fc             	mov    -0x4(%rbp),%eax
  101c6b:	48 c1 e0 04          	shl    $0x4,%rax
  101c6f:	48 05 45 11 11 00    	add    $0x111145,%rax
  101c75:	88 10                	mov    %dl,(%rax)
  101c77:	0f b6 05 e2 27 00 00 	movzbl 0x27e2(%rip),%eax        # 104460 <GDT_CODE_SEGMENT_OFFSET.1655>
  101c7e:	0f b6 c0             	movzbl %al,%eax
  101c81:	8b 55 fc             	mov    -0x4(%rbp),%edx
  101c84:	48 c1 e2 04          	shl    $0x4,%rdx
  101c88:	48 81 c2 42 11 11 00 	add    $0x111142,%rdx
  101c8f:	66 89 02             	mov    %ax,(%rdx)
  101c92:	8b 45 fc             	mov    -0x4(%rbp),%eax
  101c95:	48 c1 e0 04          	shl    $0x4,%rax
  101c99:	48 05 44 11 11 00    	add    $0x111144,%rax
  101c9f:	c6 00 00             	movb   $0x0,(%rax)
  101ca2:	90                   	nop
  101ca3:	c9                   	leaveq 
  101ca4:	c3                   	retq   

0000000000101ca5 <x86_64_idt_initalize>:
  101ca5:	55                   	push   %rbp
  101ca6:	48 89 e5             	mov    %rsp,%rbp
  101ca9:	48 83 ec 10          	sub    $0x10,%rsp
  101cad:	c7 45 fc 00 00 00 00 	movl   $0x0,-0x4(%rbp)
  101cb4:	eb 26                	jmp    101cdc <x86_64_idt_initalize+0x37>
  101cb6:	ba 25 11 10 00       	mov    $0x101125,%edx
  101cbb:	8b 45 fc             	mov    -0x4(%rbp),%eax
  101cbe:	48 89 d6             	mov    %rdx,%rsi
  101cc1:	89 c7                	mov    %eax,%edi
  101cc3:	e8 2d ff ff ff       	callq  101bf5 <idt_install_interrupt>
  101cc8:	8b 45 fc             	mov    -0x4(%rbp),%eax
  101ccb:	b9 ff ff ff ff       	mov    $0xffffffff,%ecx
  101cd0:	48 89 0c c5 40 21 11 	mov    %rcx,0x112140(,%rax,8)
  101cd7:	00 
  101cd8:	83 45 fc 01          	addl   $0x1,-0x4(%rbp)
  101cdc:	81 7d fc ff 00 00 00 	cmpl   $0xff,-0x4(%rbp)
  101ce3:	76 d1                	jbe    101cb6 <x86_64_idt_initalize+0x11>
  101ce5:	b8 6c 11 10 00       	mov    $0x10116c,%eax
  101cea:	48 89 c6             	mov    %rax,%rsi
  101ced:	bf 00 00 00 00       	mov    $0x0,%edi
  101cf2:	e8 fe fe ff ff       	callq  101bf5 <idt_install_interrupt>
  101cf7:	b8 73 11 10 00       	mov    $0x101173,%eax
  101cfc:	48 89 c6             	mov    %rax,%rsi
  101cff:	bf 01 00 00 00       	mov    $0x1,%edi
  101d04:	e8 ec fe ff ff       	callq  101bf5 <idt_install_interrupt>
  101d09:	b8 7a 11 10 00       	mov    $0x10117a,%eax
  101d0e:	48 89 c6             	mov    %rax,%rsi
  101d11:	bf 02 00 00 00       	mov    $0x2,%edi
  101d16:	e8 da fe ff ff       	callq  101bf5 <idt_install_interrupt>
  101d1b:	b8 81 11 10 00       	mov    $0x101181,%eax
  101d20:	48 89 c6             	mov    %rax,%rsi
  101d23:	bf 03 00 00 00       	mov    $0x3,%edi
  101d28:	e8 c8 fe ff ff       	callq  101bf5 <idt_install_interrupt>
  101d2d:	b8 88 11 10 00       	mov    $0x101188,%eax
  101d32:	48 89 c6             	mov    %rax,%rsi
  101d35:	bf 04 00 00 00       	mov    $0x4,%edi
  101d3a:	e8 b6 fe ff ff       	callq  101bf5 <idt_install_interrupt>
  101d3f:	b8 8f 11 10 00       	mov    $0x10118f,%eax
  101d44:	48 89 c6             	mov    %rax,%rsi
  101d47:	bf 05 00 00 00       	mov    $0x5,%edi
  101d4c:	e8 a4 fe ff ff       	callq  101bf5 <idt_install_interrupt>
  101d51:	b8 96 11 10 00       	mov    $0x101196,%eax
  101d56:	48 89 c6             	mov    %rax,%rsi
  101d59:	bf 06 00 00 00       	mov    $0x6,%edi
  101d5e:	e8 92 fe ff ff       	callq  101bf5 <idt_install_interrupt>
  101d63:	b8 9d 11 10 00       	mov    $0x10119d,%eax
  101d68:	48 89 c6             	mov    %rax,%rsi
  101d6b:	bf 07 00 00 00       	mov    $0x7,%edi
  101d70:	e8 80 fe ff ff       	callq  101bf5 <idt_install_interrupt>
  101d75:	b8 00 11 10 00       	mov    $0x101100,%eax
  101d7a:	48 89 c6             	mov    %rax,%rsi
  101d7d:	bf 08 00 00 00       	mov    $0x8,%edi
  101d82:	e8 6e fe ff ff       	callq  101bf5 <idt_install_interrupt>
  101d87:	b8 a9 11 10 00       	mov    $0x1011a9,%eax
  101d8c:	48 89 c6             	mov    %rax,%rsi
  101d8f:	bf 09 00 00 00       	mov    $0x9,%edi
  101d94:	e8 5c fe ff ff       	callq  101bf5 <idt_install_interrupt>
  101d99:	b8 b0 11 10 00       	mov    $0x1011b0,%eax
  101d9e:	48 89 c6             	mov    %rax,%rsi
  101da1:	bf 0a 00 00 00       	mov    $0xa,%edi
  101da6:	e8 4a fe ff ff       	callq  101bf5 <idt_install_interrupt>
  101dab:	b8 b5 11 10 00       	mov    $0x1011b5,%eax
  101db0:	48 89 c6             	mov    %rax,%rsi
  101db3:	bf 0b 00 00 00       	mov    $0xb,%edi
  101db8:	e8 38 fe ff ff       	callq  101bf5 <idt_install_interrupt>
  101dbd:	b8 ba 11 10 00       	mov    $0x1011ba,%eax
  101dc2:	48 89 c6             	mov    %rax,%rsi
  101dc5:	bf 0c 00 00 00       	mov    $0xc,%edi
  101dca:	e8 26 fe ff ff       	callq  101bf5 <idt_install_interrupt>
  101dcf:	b8 bf 11 10 00       	mov    $0x1011bf,%eax
  101dd4:	48 89 c6             	mov    %rax,%rsi
  101dd7:	bf 0d 00 00 00       	mov    $0xd,%edi
  101ddc:	e8 14 fe ff ff       	callq  101bf5 <idt_install_interrupt>
  101de1:	b8 c4 11 10 00       	mov    $0x1011c4,%eax
  101de6:	48 89 c6             	mov    %rax,%rsi
  101de9:	bf 0e 00 00 00       	mov    $0xe,%edi
  101dee:	e8 02 fe ff ff       	callq  101bf5 <idt_install_interrupt>
  101df3:	b8 c9 11 10 00       	mov    $0x1011c9,%eax
  101df8:	48 89 c6             	mov    %rax,%rsi
  101dfb:	bf 0f 00 00 00       	mov    $0xf,%edi
  101e00:	e8 f0 fd ff ff       	callq  101bf5 <idt_install_interrupt>
  101e05:	b8 d0 11 10 00       	mov    $0x1011d0,%eax
  101e0a:	48 89 c6             	mov    %rax,%rsi
  101e0d:	bf 10 00 00 00       	mov    $0x10,%edi
  101e12:	e8 de fd ff ff       	callq  101bf5 <idt_install_interrupt>
  101e17:	b8 d7 11 10 00       	mov    $0x1011d7,%eax
  101e1c:	48 89 c6             	mov    %rax,%rsi
  101e1f:	bf 11 00 00 00       	mov    $0x11,%edi
  101e24:	e8 cc fd ff ff       	callq  101bf5 <idt_install_interrupt>
  101e29:	b8 df 11 10 00       	mov    $0x1011df,%eax
  101e2e:	48 89 c6             	mov    %rax,%rsi
  101e31:	bf 12 00 00 00       	mov    $0x12,%edi
  101e36:	e8 ba fd ff ff       	callq  101bf5 <idt_install_interrupt>
  101e3b:	b8 e9 11 10 00       	mov    $0x1011e9,%eax
  101e40:	48 89 c6             	mov    %rax,%rsi
  101e43:	bf 13 00 00 00       	mov    $0x13,%edi
  101e48:	e8 a8 fd ff ff       	callq  101bf5 <idt_install_interrupt>
  101e4d:	b8 f3 11 10 00       	mov    $0x1011f3,%eax
  101e52:	48 89 c6             	mov    %rax,%rsi
  101e55:	bf 14 00 00 00       	mov    $0x14,%edi
  101e5a:	e8 96 fd ff ff       	callq  101bf5 <idt_install_interrupt>
  101e5f:	b8 fd 11 10 00       	mov    $0x1011fd,%eax
  101e64:	48 89 c6             	mov    %rax,%rsi
  101e67:	bf 15 00 00 00       	mov    $0x15,%edi
  101e6c:	e8 84 fd ff ff       	callq  101bf5 <idt_install_interrupt>
  101e71:	b8 07 12 10 00       	mov    $0x101207,%eax
  101e76:	48 89 c6             	mov    %rax,%rsi
  101e79:	bf 16 00 00 00       	mov    $0x16,%edi
  101e7e:	e8 72 fd ff ff       	callq  101bf5 <idt_install_interrupt>
  101e83:	b8 11 12 10 00       	mov    $0x101211,%eax
  101e88:	48 89 c6             	mov    %rax,%rsi
  101e8b:	bf 17 00 00 00       	mov    $0x17,%edi
  101e90:	e8 60 fd ff ff       	callq  101bf5 <idt_install_interrupt>
  101e95:	b8 1b 12 10 00       	mov    $0x10121b,%eax
  101e9a:	48 89 c6             	mov    %rax,%rsi
  101e9d:	bf 18 00 00 00       	mov    $0x18,%edi
  101ea2:	e8 4e fd ff ff       	callq  101bf5 <idt_install_interrupt>
  101ea7:	b8 25 12 10 00       	mov    $0x101225,%eax
  101eac:	48 89 c6             	mov    %rax,%rsi
  101eaf:	bf 19 00 00 00       	mov    $0x19,%edi
  101eb4:	e8 3c fd ff ff       	callq  101bf5 <idt_install_interrupt>
  101eb9:	b8 2f 12 10 00       	mov    $0x10122f,%eax
  101ebe:	48 89 c6             	mov    %rax,%rsi
  101ec1:	bf 1a 00 00 00       	mov    $0x1a,%edi
  101ec6:	e8 2a fd ff ff       	callq  101bf5 <idt_install_interrupt>
  101ecb:	b8 39 12 10 00       	mov    $0x101239,%eax
  101ed0:	48 89 c6             	mov    %rax,%rsi
  101ed3:	bf 1b 00 00 00       	mov    $0x1b,%edi
  101ed8:	e8 18 fd ff ff       	callq  101bf5 <idt_install_interrupt>
  101edd:	b8 43 12 10 00       	mov    $0x101243,%eax
  101ee2:	48 89 c6             	mov    %rax,%rsi
  101ee5:	bf 1c 00 00 00       	mov    $0x1c,%edi
  101eea:	e8 06 fd ff ff       	callq  101bf5 <idt_install_interrupt>
  101eef:	b8 4d 12 10 00       	mov    $0x10124d,%eax
  101ef4:	48 89 c6             	mov    %rax,%rsi
  101ef7:	bf 1d 00 00 00       	mov    $0x1d,%edi
  101efc:	e8 f4 fc ff ff       	callq  101bf5 <idt_install_interrupt>
  101f01:	b8 57 12 10 00       	mov    $0x101257,%eax
  101f06:	48 89 c6             	mov    %rax,%rsi
  101f09:	bf 1e 00 00 00       	mov    $0x1e,%edi
  101f0e:	e8 e2 fc ff ff       	callq  101bf5 <idt_install_interrupt>
  101f13:	b8 61 12 10 00       	mov    $0x101261,%eax
  101f18:	48 89 c6             	mov    %rax,%rsi
  101f1b:	bf 1f 00 00 00       	mov    $0x1f,%edi
  101f20:	e8 d0 fc ff ff       	callq  101bf5 <idt_install_interrupt>
  101f25:	b8 b6 2b 10 00       	mov    $0x102bb6,%eax
  101f2a:	48 89 05 0f 02 01 00 	mov    %rax,0x1020f(%rip)        # 112140 <_interrupt_handlers>
  101f31:	b8 77 2b 10 00       	mov    $0x102b77,%eax
  101f36:	48 89 05 0b 02 01 00 	mov    %rax,0x1020b(%rip)        # 112148 <_interrupt_handlers+0x8>
  101f3d:	ba 6b 12 10 00       	mov    $0x10126b,%edx
  101f42:	8b 05 38 25 00 00    	mov    0x2538(%rip),%eax        # 104480 <IRQ_PIT.1757>
  101f48:	48 89 d6             	mov    %rdx,%rsi
  101f4b:	89 c7                	mov    %eax,%edi
  101f4d:	e8 a3 fc ff ff       	callq  101bf5 <idt_install_interrupt>
  101f52:	ba 73 12 10 00       	mov    $0x101273,%edx
  101f57:	8b 05 27 25 00 00    	mov    0x2527(%rip),%eax        # 104484 <IRQ_KEYBOARD.1758>
  101f5d:	48 89 d6             	mov    %rdx,%rsi
  101f60:	89 c7                	mov    %eax,%edi
  101f62:	e8 8e fc ff ff       	callq  101bf5 <idt_install_interrupt>
  101f67:	66 c7 45 f0 ff 0f    	movw   $0xfff,-0x10(%rbp)
  101f6d:	b8 40 11 11 00       	mov    $0x111140,%eax
  101f72:	48 89 45 f2          	mov    %rax,-0xe(%rbp)
  101f76:	0f 01 5d f0          	lidt   -0x10(%rbp)
  101f7a:	fb                   	sti    
  101f7b:	be e0 3d 10 00       	mov    $0x103de0,%esi
  101f80:	bf 00 b0 10 00       	mov    $0x10b000,%edi
  101f85:	b8 00 00 00 00       	mov    $0x0,%eax
  101f8a:	e8 44 0e 00 00       	callq  102dd3 <console_write_fmt>
  101f8f:	90                   	nop
  101f90:	c9                   	leaveq 
  101f91:	c3                   	retq   

0000000000101f92 <serial_debug_init>:
  101f92:	55                   	push   %rbp
  101f93:	48 89 e5             	mov    %rsp,%rbp
  101f96:	be 00 00 00 00       	mov    $0x0,%esi
  101f9b:	bf f9 03 00 00       	mov    $0x3f9,%edi
  101fa0:	e8 f0 f2 ff ff       	callq  101295 <write_port>
  101fa5:	be 80 00 00 00       	mov    $0x80,%esi
  101faa:	bf fb 03 00 00       	mov    $0x3fb,%edi
  101faf:	e8 e1 f2 ff ff       	callq  101295 <write_port>
  101fb4:	be 03 00 00 00       	mov    $0x3,%esi
  101fb9:	bf f8 03 00 00       	mov    $0x3f8,%edi
  101fbe:	e8 d2 f2 ff ff       	callq  101295 <write_port>
  101fc3:	be 00 00 00 00       	mov    $0x0,%esi
  101fc8:	bf f9 03 00 00       	mov    $0x3f9,%edi
  101fcd:	e8 c3 f2 ff ff       	callq  101295 <write_port>
  101fd2:	be 03 00 00 00       	mov    $0x3,%esi
  101fd7:	bf fb 03 00 00       	mov    $0x3fb,%edi
  101fdc:	e8 b4 f2 ff ff       	callq  101295 <write_port>
  101fe1:	be c7 00 00 00       	mov    $0xc7,%esi
  101fe6:	bf fa 03 00 00       	mov    $0x3fa,%edi
  101feb:	e8 a5 f2 ff ff       	callq  101295 <write_port>
  101ff0:	be 0b 00 00 00       	mov    $0xb,%esi
  101ff5:	bf fc 03 00 00       	mov    $0x3fc,%edi
  101ffa:	e8 96 f2 ff ff       	callq  101295 <write_port>
  101fff:	90                   	nop
  102000:	5d                   	pop    %rbp
  102001:	c3                   	retq   

0000000000102002 <is_transmit_empty>:
  102002:	55                   	push   %rbp
  102003:	48 89 e5             	mov    %rsp,%rbp
  102006:	bf fd 03 00 00       	mov    $0x3fd,%edi
  10200b:	e8 a4 f2 ff ff       	callq  1012b4 <read_port>
  102010:	0f b6 c0             	movzbl %al,%eax
  102013:	83 e0 20             	and    $0x20,%eax
  102016:	5d                   	pop    %rbp
  102017:	c3                   	retq   

0000000000102018 <write_serial>:
  102018:	55                   	push   %rbp
  102019:	48 89 e5             	mov    %rsp,%rbp
  10201c:	48 83 ec 20          	sub    $0x20,%rsp
  102020:	48 89 7d e8          	mov    %rdi,-0x18(%rbp)
  102024:	48 89 75 e0          	mov    %rsi,-0x20(%rbp)
  102028:	48 8b 45 e8          	mov    -0x18(%rbp),%rax
  10202c:	48 89 45 f0          	mov    %rax,-0x10(%rbp)
  102030:	48 c7 45 f8 00 00 00 	movq   $0x0,-0x8(%rbp)
  102037:	00 
  102038:	eb 31                	jmp    10206b <write_serial+0x53>
  10203a:	90                   	nop
  10203b:	b8 00 00 00 00       	mov    $0x0,%eax
  102040:	e8 bd ff ff ff       	callq  102002 <is_transmit_empty>
  102045:	85 c0                	test   %eax,%eax
  102047:	74 f2                	je     10203b <write_serial+0x23>
  102049:	48 8b 55 f0          	mov    -0x10(%rbp),%rdx
  10204d:	48 8b 45 f8          	mov    -0x8(%rbp),%rax
  102051:	48 01 d0             	add    %rdx,%rax
  102054:	0f b6 00             	movzbl (%rax),%eax
  102057:	0f b6 c0             	movzbl %al,%eax
  10205a:	89 c6                	mov    %eax,%esi
  10205c:	bf f8 03 00 00       	mov    $0x3f8,%edi
  102061:	e8 2f f2 ff ff       	callq  101295 <write_port>
  102066:	48 83 45 f8 01       	addq   $0x1,-0x8(%rbp)
  10206b:	48 8b 45 f8          	mov    -0x8(%rbp),%rax
  10206f:	48 3b 45 e0          	cmp    -0x20(%rbp),%rax
  102073:	72 c5                	jb     10203a <write_serial+0x22>
  102075:	90                   	nop
  102076:	c9                   	leaveq 
  102077:	c3                   	retq   

0000000000102078 <log_page_info>:
  102078:	55                   	push   %rbp
  102079:	48 89 e5             	mov    %rsp,%rbp
  10207c:	48 83 ec 20          	sub    $0x20,%rsp
  102080:	48 c7 45 f8 00 00 00 	movq   $0x0,-0x8(%rbp)
  102087:	00 
  102088:	eb 61                	jmp    1020eb <log_page_info+0x73>
  10208a:	48 8b 45 f8          	mov    -0x8(%rbp),%rax
  10208e:	48 8b 04 c5 00 70 10 	mov    0x107000(,%rax,8),%rax
  102095:	00 
  102096:	83 e0 01             	and    $0x1,%eax
  102099:	48 85 c0             	test   %rax,%rax
  10209c:	0f 95 c0             	setne  %al
  10209f:	88 45 f7             	mov    %al,-0x9(%rbp)
  1020a2:	48 8b 45 f8          	mov    -0x8(%rbp),%rax
  1020a6:	48 8b 04 c5 00 70 10 	mov    0x107000(,%rax,8),%rax
  1020ad:	00 
  1020ae:	48 25 00 f0 ff ff    	and    $0xfffffffffffff000,%rax
  1020b4:	48 89 45 e8          	mov    %rax,-0x18(%rbp)
  1020b8:	48 8b 45 f8          	mov    -0x8(%rbp),%rax
  1020bc:	48 c1 e0 15          	shl    $0x15,%rax
  1020c0:	48 89 45 e0          	mov    %rax,-0x20(%rbp)
  1020c4:	48 8b 55 e8          	mov    -0x18(%rbp),%rdx
  1020c8:	48 8b 45 e0          	mov    -0x20(%rbp),%rax
  1020cc:	48 89 d1             	mov    %rdx,%rcx
  1020cf:	48 89 c2             	mov    %rax,%rdx
  1020d2:	be 38 3e 10 00       	mov    $0x103e38,%esi
  1020d7:	bf 00 b0 10 00       	mov    $0x10b000,%edi
  1020dc:	b8 00 00 00 00       	mov    $0x0,%eax
  1020e1:	e8 ed 0c 00 00       	callq  102dd3 <console_write_fmt>
  1020e6:	48 83 45 f8 01       	addq   $0x1,-0x8(%rbp)
  1020eb:	8b 05 4f 08 01 00    	mov    0x1084f(%rip),%eax        # 112940 <g_current_page_index>
  1020f1:	89 c0                	mov    %eax,%eax
  1020f3:	48 3b 45 f8          	cmp    -0x8(%rbp),%rax
  1020f7:	77 91                	ja     10208a <log_page_info+0x12>
  1020f9:	90                   	nop
  1020fa:	c9                   	leaveq 
  1020fb:	c3                   	retq   

00000000001020fc <print_page_table_entry_info>:
  1020fc:	55                   	push   %rbp
  1020fd:	48 89 e5             	mov    %rsp,%rbp
  102100:	48 83 ec 20          	sub    $0x20,%rsp
  102104:	48 89 7d e8          	mov    %rdi,-0x18(%rbp)
  102108:	48 8b 45 e8          	mov    -0x18(%rbp),%rax
  10210c:	48 25 00 f0 ff ff    	and    $0xfffffffffffff000,%rax
  102112:	48 89 45 f8          	mov    %rax,-0x8(%rbp)
  102116:	b8 01 00 00 00       	mov    $0x1,%eax
  10211b:	48 23 45 e8          	and    -0x18(%rbp),%rax
  10211f:	48 85 c0             	test   %rax,%rax
  102122:	0f 95 c0             	setne  %al
  102125:	88 45 f7             	mov    %al,-0x9(%rbp)
  102128:	b8 02 00 00 00       	mov    $0x2,%eax
  10212d:	48 23 45 e8          	and    -0x18(%rbp),%rax
  102131:	48 85 c0             	test   %rax,%rax
  102134:	0f 95 c0             	setne  %al
  102137:	88 45 f6             	mov    %al,-0xa(%rbp)
  10213a:	b8 04 00 00 00       	mov    $0x4,%eax
  10213f:	48 23 45 e8          	and    -0x18(%rbp),%rax
  102143:	48 85 c0             	test   %rax,%rax
  102146:	0f 95 c0             	setne  %al
  102149:	88 45 f5             	mov    %al,-0xb(%rbp)
  10214c:	b8 08 00 00 00       	mov    $0x8,%eax
  102151:	48 23 45 e8          	and    -0x18(%rbp),%rax
  102155:	48 85 c0             	test   %rax,%rax
  102158:	0f 95 c0             	setne  %al
  10215b:	88 45 f4             	mov    %al,-0xc(%rbp)
  10215e:	b8 10 00 00 00       	mov    $0x10,%eax
  102163:	48 23 45 e8          	and    -0x18(%rbp),%rax
  102167:	48 85 c0             	test   %rax,%rax
  10216a:	0f 95 c0             	setne  %al
  10216d:	88 45 f3             	mov    %al,-0xd(%rbp)
  102170:	b8 80 00 00 00       	mov    $0x80,%eax
  102175:	48 23 45 e8          	and    -0x18(%rbp),%rax
  102179:	48 85 c0             	test   %rax,%rax
  10217c:	0f 95 c0             	setne  %al
  10217f:	88 45 f2             	mov    %al,-0xe(%rbp)
  102182:	48 8b 45 f8          	mov    -0x8(%rbp),%rax
  102186:	48 89 c2             	mov    %rax,%rdx
  102189:	be 5e 3e 10 00       	mov    $0x103e5e,%esi
  10218e:	bf 00 b0 10 00       	mov    $0x10b000,%edi
  102193:	b8 00 00 00 00       	mov    $0x0,%eax
  102198:	e8 36 0c 00 00       	callq  102dd3 <console_write_fmt>
  10219d:	80 7d f7 00          	cmpb   $0x0,-0x9(%rbp)
  1021a1:	74 07                	je     1021aa <print_page_table_entry_info+0xae>
  1021a3:	b8 74 3e 10 00       	mov    $0x103e74,%eax
  1021a8:	eb 05                	jmp    1021af <print_page_table_entry_info+0xb3>
  1021aa:	b8 79 3e 10 00       	mov    $0x103e79,%eax
  1021af:	48 89 c2             	mov    %rax,%rdx
  1021b2:	be 7f 3e 10 00       	mov    $0x103e7f,%esi
  1021b7:	bf 00 b0 10 00       	mov    $0x10b000,%edi
  1021bc:	b8 00 00 00 00       	mov    $0x0,%eax
  1021c1:	e8 0d 0c 00 00       	callq  102dd3 <console_write_fmt>
  1021c6:	80 7d f6 00          	cmpb   $0x0,-0xa(%rbp)
  1021ca:	74 07                	je     1021d3 <print_page_table_entry_info+0xd7>
  1021cc:	b8 74 3e 10 00       	mov    $0x103e74,%eax
  1021d1:	eb 05                	jmp    1021d8 <print_page_table_entry_info+0xdc>
  1021d3:	b8 79 3e 10 00       	mov    $0x103e79,%eax
  1021d8:	48 89 c2             	mov    %rax,%rdx
  1021db:	be 8b 3e 10 00       	mov    $0x103e8b,%esi
  1021e0:	bf 00 b0 10 00       	mov    $0x10b000,%edi
  1021e5:	b8 00 00 00 00       	mov    $0x0,%eax
  1021ea:	e8 e4 0b 00 00       	callq  102dd3 <console_write_fmt>
  1021ef:	80 7d f5 00          	cmpb   $0x0,-0xb(%rbp)
  1021f3:	74 07                	je     1021fc <print_page_table_entry_info+0x100>
  1021f5:	b8 74 3e 10 00       	mov    $0x103e74,%eax
  1021fa:	eb 05                	jmp    102201 <print_page_table_entry_info+0x105>
  1021fc:	b8 79 3e 10 00       	mov    $0x103e79,%eax
  102201:	48 89 c2             	mov    %rax,%rdx
  102204:	be 99 3e 10 00       	mov    $0x103e99,%esi
  102209:	bf 00 b0 10 00       	mov    $0x10b000,%edi
  10220e:	b8 00 00 00 00       	mov    $0x0,%eax
  102213:	e8 bb 0b 00 00       	callq  102dd3 <console_write_fmt>
  102218:	80 7d f4 00          	cmpb   $0x0,-0xc(%rbp)
  10221c:	74 07                	je     102225 <print_page_table_entry_info+0x129>
  10221e:	b8 74 3e 10 00       	mov    $0x103e74,%eax
  102223:	eb 05                	jmp    10222a <print_page_table_entry_info+0x12e>
  102225:	b8 79 3e 10 00       	mov    $0x103e79,%eax
  10222a:	48 89 c2             	mov    %rax,%rdx
  10222d:	be ae 3e 10 00       	mov    $0x103eae,%esi
  102232:	bf 00 b0 10 00       	mov    $0x10b000,%edi
  102237:	b8 00 00 00 00       	mov    $0x0,%eax
  10223c:	e8 92 0b 00 00       	callq  102dd3 <console_write_fmt>
  102241:	80 7d f3 00          	cmpb   $0x0,-0xd(%rbp)
  102245:	74 07                	je     10224e <print_page_table_entry_info+0x152>
  102247:	b8 74 3e 10 00       	mov    $0x103e74,%eax
  10224c:	eb 05                	jmp    102253 <print_page_table_entry_info+0x157>
  10224e:	b8 79 3e 10 00       	mov    $0x103e79,%eax
  102253:	48 89 c2             	mov    %rax,%rdx
  102256:	be c8 3e 10 00       	mov    $0x103ec8,%esi
  10225b:	bf 00 b0 10 00       	mov    $0x10b000,%edi
  102260:	b8 00 00 00 00       	mov    $0x0,%eax
  102265:	e8 69 0b 00 00       	callq  102dd3 <console_write_fmt>
  10226a:	80 7d f2 00          	cmpb   $0x0,-0xe(%rbp)
  10226e:	74 07                	je     102277 <print_page_table_entry_info+0x17b>
  102270:	b8 74 3e 10 00       	mov    $0x103e74,%eax
  102275:	eb 05                	jmp    10227c <print_page_table_entry_info+0x180>
  102277:	b8 79 3e 10 00       	mov    $0x103e79,%eax
  10227c:	48 89 c2             	mov    %rax,%rdx
  10227f:	be dd 3e 10 00       	mov    $0x103edd,%esi
  102284:	bf 00 b0 10 00       	mov    $0x10b000,%edi
  102289:	b8 00 00 00 00       	mov    $0x0,%eax
  10228e:	e8 40 0b 00 00       	callq  102dd3 <console_write_fmt>
  102293:	90                   	nop
  102294:	c9                   	leaveq 
  102295:	c3                   	retq   

0000000000102296 <print_virtual_address_info_2MB>:
  102296:	55                   	push   %rbp
  102297:	48 89 e5             	mov    %rsp,%rbp
  10229a:	48 83 ec 30          	sub    $0x30,%rsp
  10229e:	48 89 7d d8          	mov    %rdi,-0x28(%rbp)
  1022a2:	48 8b 45 d8          	mov    -0x28(%rbp),%rax
  1022a6:	48 c1 e8 27          	shr    $0x27,%rax
  1022aa:	25 ff 01 00 00       	and    $0x1ff,%eax
  1022af:	48 89 45 f8          	mov    %rax,-0x8(%rbp)
  1022b3:	48 8b 45 d8          	mov    -0x28(%rbp),%rax
  1022b7:	48 c1 e8 1e          	shr    $0x1e,%rax
  1022bb:	25 ff 01 00 00       	and    $0x1ff,%eax
  1022c0:	48 89 45 f0          	mov    %rax,-0x10(%rbp)
  1022c4:	48 8b 45 d8          	mov    -0x28(%rbp),%rax
  1022c8:	48 c1 e8 15          	shr    $0x15,%rax
  1022cc:	25 ff 01 00 00       	and    $0x1ff,%eax
  1022d1:	48 89 45 e8          	mov    %rax,-0x18(%rbp)
  1022d5:	48 8b 45 d8          	mov    -0x28(%rbp),%rax
  1022d9:	25 ff ff 0f 00       	and    $0xfffff,%eax
  1022de:	48 89 45 e0          	mov    %rax,-0x20(%rbp)
  1022e2:	48 8b 45 d8          	mov    -0x28(%rbp),%rax
  1022e6:	48 89 c2             	mov    %rax,%rdx
  1022e9:	be eb 3e 10 00       	mov    $0x103eeb,%esi
  1022ee:	bf 00 b0 10 00       	mov    $0x10b000,%edi
  1022f3:	b8 00 00 00 00       	mov    $0x0,%eax
  1022f8:	e8 d6 0a 00 00       	callq  102dd3 <console_write_fmt>
  1022fd:	48 8b 45 f8          	mov    -0x8(%rbp),%rax
  102301:	48 89 c2             	mov    %rax,%rdx
  102304:	be 00 3f 10 00       	mov    $0x103f00,%esi
  102309:	bf 00 b0 10 00       	mov    $0x10b000,%edi
  10230e:	b8 00 00 00 00       	mov    $0x0,%eax
  102313:	e8 bb 0a 00 00       	callq  102dd3 <console_write_fmt>
  102318:	48 8b 45 f0          	mov    -0x10(%rbp),%rax
  10231c:	48 89 c2             	mov    %rax,%rdx
  10231f:	be 0e 3f 10 00       	mov    $0x103f0e,%esi
  102324:	bf 00 b0 10 00       	mov    $0x10b000,%edi
  102329:	b8 00 00 00 00       	mov    $0x0,%eax
  10232e:	e8 a0 0a 00 00       	callq  102dd3 <console_write_fmt>
  102333:	48 8b 45 e8          	mov    -0x18(%rbp),%rax
  102337:	48 89 c2             	mov    %rax,%rdx
  10233a:	be 1c 3f 10 00       	mov    $0x103f1c,%esi
  10233f:	bf 00 b0 10 00       	mov    $0x10b000,%edi
  102344:	b8 00 00 00 00       	mov    $0x0,%eax
  102349:	e8 85 0a 00 00       	callq  102dd3 <console_write_fmt>
  10234e:	48 8b 45 e0          	mov    -0x20(%rbp),%rax
  102352:	48 89 c2             	mov    %rax,%rdx
  102355:	be 2a 3f 10 00       	mov    $0x103f2a,%esi
  10235a:	bf 00 b0 10 00       	mov    $0x10b000,%edi
  10235f:	b8 00 00 00 00       	mov    $0x0,%eax
  102364:	e8 6a 0a 00 00       	callq  102dd3 <console_write_fmt>
  102369:	be 36 3f 10 00       	mov    $0x103f36,%esi
  10236e:	bf 00 b0 10 00       	mov    $0x10b000,%edi
  102373:	b8 00 00 00 00       	mov    $0x0,%eax
  102378:	e8 56 0a 00 00       	callq  102dd3 <console_write_fmt>
  10237d:	48 8b 45 f8          	mov    -0x8(%rbp),%rax
  102381:	48 8b 04 c5 00 50 10 	mov    0x105000(,%rax,8),%rax
  102388:	00 
  102389:	48 89 c7             	mov    %rax,%rdi
  10238c:	e8 6b fd ff ff       	callq  1020fc <print_page_table_entry_info>
  102391:	be 45 3f 10 00       	mov    $0x103f45,%esi
  102396:	bf 00 b0 10 00       	mov    $0x10b000,%edi
  10239b:	b8 00 00 00 00       	mov    $0x0,%eax
  1023a0:	e8 2e 0a 00 00       	callq  102dd3 <console_write_fmt>
  1023a5:	48 8b 45 f0          	mov    -0x10(%rbp),%rax
  1023a9:	48 8b 04 c5 00 60 10 	mov    0x106000(,%rax,8),%rax
  1023b0:	00 
  1023b1:	48 89 c7             	mov    %rax,%rdi
  1023b4:	e8 43 fd ff ff       	callq  1020fc <print_page_table_entry_info>
  1023b9:	be 54 3f 10 00       	mov    $0x103f54,%esi
  1023be:	bf 00 b0 10 00       	mov    $0x10b000,%edi
  1023c3:	b8 00 00 00 00       	mov    $0x0,%eax
  1023c8:	e8 06 0a 00 00       	callq  102dd3 <console_write_fmt>
  1023cd:	48 8b 45 e8          	mov    -0x18(%rbp),%rax
  1023d1:	48 8b 04 c5 00 70 10 	mov    0x107000(,%rax,8),%rax
  1023d8:	00 
  1023d9:	48 89 c7             	mov    %rax,%rdi
  1023dc:	e8 1b fd ff ff       	callq  1020fc <print_page_table_entry_info>
  1023e1:	90                   	nop
  1023e2:	c9                   	leaveq 
  1023e3:	c3                   	retq   

00000000001023e4 <silly_page_map_4KB>:
  1023e4:	55                   	push   %rbp
  1023e5:	48 89 e5             	mov    %rsp,%rbp
  1023e8:	48 83 ec 18          	sub    $0x18,%rsp
  1023ec:	48 89 7d e8          	mov    %rdi,-0x18(%rbp)
  1023f0:	8b 15 4e 05 01 00    	mov    0x1054e(%rip),%edx        # 112944 <g_p1_table_count>
  1023f6:	b8 01 00 00 00       	mov    $0x1,%eax
  1023fb:	48 0b 45 e8          	or     -0x18(%rbp),%rax
  1023ff:	b9 02 00 00 00       	mov    $0x2,%ecx
  102404:	48 09 c8             	or     %rcx,%rax
  102407:	89 d2                	mov    %edx,%edx
  102409:	48 89 04 d5 00 30 11 	mov    %rax,0x113000(,%rdx,8)
  102410:	00 
  102411:	8b 05 2d 05 01 00    	mov    0x1052d(%rip),%eax        # 112944 <g_p1_table_count>
  102417:	05 00 02 00 00       	add    $0x200,%eax
  10241c:	c1 e0 0c             	shl    $0xc,%eax
  10241f:	89 c0                	mov    %eax,%eax
  102421:	48 89 45 f8          	mov    %rax,-0x8(%rbp)
  102425:	48 8b 45 f8          	mov    -0x8(%rbp),%rax
  102429:	c9                   	leaveq 
  10242a:	c3                   	retq   

000000000010242b <silly_page_map>:
  10242b:	55                   	push   %rbp
  10242c:	48 89 e5             	mov    %rsp,%rbp
  10242f:	48 83 ec 40          	sub    $0x40,%rsp
  102433:	48 89 7d d8          	mov    %rdi,-0x28(%rbp)
  102437:	89 f0                	mov    %esi,%eax
  102439:	48 89 55 c8          	mov    %rdx,-0x38(%rbp)
  10243d:	48 89 4d c0          	mov    %rcx,-0x40(%rbp)
  102441:	88 45 d4             	mov    %al,-0x2c(%rbp)
  102444:	48 8b 45 d8          	mov    -0x28(%rbp),%rax
  102448:	48 89 45 f8          	mov    %rax,-0x8(%rbp)
  10244c:	48 8b 45 d8          	mov    -0x28(%rbp),%rax
  102450:	25 ff ff 1f 00       	and    $0x1fffff,%eax
  102455:	48 89 45 f0          	mov    %rax,-0x10(%rbp)
  102459:	48 8b 45 f0          	mov    -0x10(%rbp),%rax
  10245d:	48 29 45 f8          	sub    %rax,-0x8(%rbp)
  102461:	8b 15 d9 04 01 00    	mov    0x104d9(%rip),%edx        # 112940 <g_current_page_index>
  102467:	b8 01 00 00 00       	mov    $0x1,%eax
  10246c:	48 0b 45 f8          	or     -0x8(%rbp),%rax
  102470:	b9 80 00 00 00       	mov    $0x80,%ecx
  102475:	48 09 c8             	or     %rcx,%rax
  102478:	89 d2                	mov    %edx,%edx
  10247a:	48 89 04 d5 00 70 10 	mov    %rax,0x107000(,%rdx,8)
  102481:	00 
  102482:	80 7d d4 00          	cmpb   $0x0,-0x2c(%rbp)
  102486:	74 28                	je     1024b0 <silly_page_map+0x85>
  102488:	8b 15 b2 04 01 00    	mov    0x104b2(%rip),%edx        # 112940 <g_current_page_index>
  10248e:	8b 05 ac 04 01 00    	mov    0x104ac(%rip),%eax        # 112940 <g_current_page_index>
  102494:	89 c0                	mov    %eax,%eax
  102496:	48 8b 04 c5 00 70 10 	mov    0x107000(,%rax,8),%rax
  10249d:	00 
  10249e:	b9 02 00 00 00       	mov    $0x2,%ecx
  1024a3:	48 09 c8             	or     %rcx,%rax
  1024a6:	89 d2                	mov    %edx,%edx
  1024a8:	48 89 04 d5 00 70 10 	mov    %rax,0x107000(,%rdx,8)
  1024af:	00 
  1024b0:	8b 05 8a 04 01 00    	mov    0x1048a(%rip),%eax        # 112940 <g_current_page_index>
  1024b6:	c1 e0 15             	shl    $0x15,%eax
  1024b9:	89 c0                	mov    %eax,%eax
  1024bb:	48 89 45 e8          	mov    %rax,-0x18(%rbp)
  1024bf:	48 8b 45 c0          	mov    -0x40(%rbp),%rax
  1024c3:	48 8b 55 f0          	mov    -0x10(%rbp),%rdx
  1024c7:	48 89 10             	mov    %rdx,(%rax)
  1024ca:	48 8b 45 c8          	mov    -0x38(%rbp),%rax
  1024ce:	48 8b 55 f8          	mov    -0x8(%rbp),%rdx
  1024d2:	48 89 10             	mov    %rdx,(%rax)
  1024d5:	8b 05 65 04 01 00    	mov    0x10465(%rip),%eax        # 112940 <g_current_page_index>
  1024db:	83 c0 01             	add    $0x1,%eax
  1024de:	89 05 5c 04 01 00    	mov    %eax,0x1045c(%rip)        # 112940 <g_current_page_index>
  1024e4:	8b 05 56 04 01 00    	mov    0x10456(%rip),%eax        # 112940 <g_current_page_index>
  1024ea:	89 c0                	mov    %eax,%eax
  1024ec:	48 8b 0c c5 00 70 10 	mov    0x107000(,%rax,8),%rcx
  1024f3:	00 
  1024f4:	48 8b 45 c0          	mov    -0x40(%rbp),%rax
  1024f8:	48 8b 38             	mov    (%rax),%rdi
  1024fb:	48 8b 75 d8          	mov    -0x28(%rbp),%rsi
  1024ff:	48 8b 55 e8          	mov    -0x18(%rbp),%rdx
  102503:	48 8b 45 f8          	mov    -0x8(%rbp),%rax
  102507:	48 83 ec 08          	sub    $0x8,%rsp
  10250b:	51                   	push   %rcx
  10250c:	49 89 f9             	mov    %rdi,%r9
  10250f:	49 89 f0             	mov    %rsi,%r8
  102512:	48 89 d1             	mov    %rdx,%rcx
  102515:	48 89 c2             	mov    %rax,%rdx
  102518:	be 68 3f 10 00       	mov    $0x103f68,%esi
  10251d:	bf 00 b0 10 00       	mov    $0x10b000,%edi
  102522:	b8 00 00 00 00       	mov    $0x0,%eax
  102527:	e8 a7 08 00 00       	callq  102dd3 <console_write_fmt>
  10252c:	48 83 c4 10          	add    $0x10,%rsp
  102530:	48 8b 45 e8          	mov    -0x18(%rbp),%rax
  102534:	c9                   	leaveq 
  102535:	c3                   	retq   

0000000000102536 <kmem_initalize>:
  102536:	55                   	push   %rbp
  102537:	48 89 e5             	mov    %rsp,%rbp
  10253a:	ba 02 00 00 00       	mov    $0x2,%edx
  10253f:	b8 01 00 00 00       	mov    $0x1,%eax
  102544:	48 09 d0             	or     %rdx,%rax
  102547:	ba 00 30 11 00       	mov    $0x113000,%edx
  10254c:	48 09 d0             	or     %rdx,%rax
  10254f:	48 89 05 b2 4a 00 00 	mov    %rax,0x4ab2(%rip)        # 107008 <g_p2_table+0x8>
  102556:	c7 05 e0 03 01 00 02 	movl   $0x2,0x103e0(%rip)        # 112940 <g_current_page_index>
  10255d:	00 00 00 
  102560:	ba 00 50 10 00       	mov    $0x105000,%edx
  102565:	be 19 40 10 00       	mov    $0x104019,%esi
  10256a:	bf 00 b0 10 00       	mov    $0x10b000,%edi
  10256f:	b8 00 00 00 00       	mov    $0x0,%eax
  102574:	e8 5a 08 00 00       	callq  102dd3 <console_write_fmt>
  102579:	ba 00 60 10 00       	mov    $0x106000,%edx
  10257e:	be 32 40 10 00       	mov    $0x104032,%esi
  102583:	bf 00 b0 10 00       	mov    $0x10b000,%edi
  102588:	b8 00 00 00 00       	mov    $0x0,%eax
  10258d:	e8 41 08 00 00       	callq  102dd3 <console_write_fmt>
  102592:	ba 00 70 10 00       	mov    $0x107000,%edx
  102597:	be 4b 40 10 00       	mov    $0x10404b,%esi
  10259c:	bf 00 b0 10 00       	mov    $0x10b000,%edi
  1025a1:	b8 00 00 00 00       	mov    $0x0,%eax
  1025a6:	e8 28 08 00 00       	callq  102dd3 <console_write_fmt>
  1025ab:	90                   	nop
  1025ac:	5d                   	pop    %rbp
  1025ad:	c3                   	retq   

00000000001025ae <ap_entry_procedure>:
  1025ae:	55                   	push   %rbp
  1025af:	48 89 e5             	mov    %rsp,%rbp
  1025b2:	be 68 40 10 00       	mov    $0x104068,%esi
  1025b7:	bf 00 b0 10 00       	mov    $0x10b000,%edi
  1025bc:	b8 00 00 00 00       	mov    $0x0,%eax
  1025c1:	e8 0d 08 00 00       	callq  102dd3 <console_write_fmt>
  1025c6:	90                   	nop
  1025c7:	5d                   	pop    %rbp
  1025c8:	c3                   	retq   

00000000001025c9 <kernel_longmode_entry>:
  1025c9:	55                   	push   %rbp
  1025ca:	48 89 e5             	mov    %rsp,%rbp
  1025cd:	48 83 c4 80          	add    $0xffffffffffffff80,%rsp
  1025d1:	48 89 7d 88          	mov    %rdi,-0x78(%rbp)
  1025d5:	48 89 75 80          	mov    %rsi,-0x80(%rbp)
  1025d9:	b8 00 00 00 00       	mov    $0x0,%eax
  1025de:	e8 af f9 ff ff       	callq  101f92 <serial_debug_init>
  1025e3:	e8 34 f4 ff ff       	callq  101a1c <legacy_pic8259_initalize>
  1025e8:	e8 8a f5 ff ff       	callq  101b77 <legacy_pit_initialize>
  1025ed:	b8 00 00 00 00       	mov    $0x0,%eax
  1025f2:	e8 ae f6 ff ff       	callq  101ca5 <x86_64_idt_initalize>
  1025f7:	b8 00 00 00 00       	mov    $0x0,%eax
  1025fc:	e8 35 ff ff ff       	callq  102536 <kmem_initalize>
  102601:	48 c7 45 a0 00 00 00 	movq   $0x0,-0x60(%rbp)
  102608:	00 
  102609:	48 c7 45 a8 00 00 00 	movq   $0x0,-0x58(%rbp)
  102610:	00 
  102611:	48 c7 45 b0 00 00 00 	movq   $0x0,-0x50(%rbp)
  102618:	00 
  102619:	48 81 7d 88 89 62 d7 	cmpq   $0x36d76289,-0x78(%rbp)
  102620:	36 
  102621:	74 25                	je     102648 <kernel_longmode_entry+0x7f>
  102623:	be b0 40 10 00       	mov    $0x1040b0,%esi
  102628:	bf 00 b0 10 00       	mov    $0x10b000,%edi
  10262d:	b8 00 00 00 00       	mov    $0x0,%eax
  102632:	e8 9c 07 00 00       	callq  102dd3 <console_write_fmt>
  102637:	be 00 b0 10 00       	mov    $0x10b000,%esi
  10263c:	bf 10 11 11 00       	mov    $0x111110,%edi
  102641:	e8 21 10 00 00       	callq  103667 <redraw_vga_text_terminal_if_dirty>
  102646:	fa                   	cli    
  102647:	f4                   	hlt    
  102648:	48 8b 45 80          	mov    -0x80(%rbp),%rax
  10264c:	83 e0 07             	and    $0x7,%eax
  10264f:	48 85 c0             	test   %rax,%rax
  102652:	74 25                	je     102679 <kernel_longmode_entry+0xb0>
  102654:	be f2 40 10 00       	mov    $0x1040f2,%esi
  102659:	bf 00 b0 10 00       	mov    $0x10b000,%edi
  10265e:	b8 00 00 00 00       	mov    $0x0,%eax
  102663:	e8 6b 07 00 00       	callq  102dd3 <console_write_fmt>
  102668:	be 00 b0 10 00       	mov    $0x10b000,%esi
  10266d:	bf 10 11 11 00       	mov    $0x111110,%edi
  102672:	e8 f0 0f 00 00       	callq  103667 <redraw_vga_text_terminal_if_dirty>
  102677:	fa                   	cli    
  102678:	f4                   	hlt    
  102679:	48 8b 45 80          	mov    -0x80(%rbp),%rax
  10267d:	8b 00                	mov    (%rax),%eax
  10267f:	89 45 ec             	mov    %eax,-0x14(%rbp)
  102682:	8b 45 ec             	mov    -0x14(%rbp),%eax
  102685:	89 c2                	mov    %eax,%edx
  102687:	be 0c 41 10 00       	mov    $0x10410c,%esi
  10268c:	bf 00 b0 10 00       	mov    $0x10b000,%edi
  102691:	b8 00 00 00 00       	mov    $0x0,%eax
  102696:	e8 38 07 00 00       	callq  102dd3 <console_write_fmt>
  10269b:	48 8b 45 80          	mov    -0x80(%rbp),%rax
  10269f:	48 83 c0 08          	add    $0x8,%rax
  1026a3:	48 89 45 f8          	mov    %rax,-0x8(%rbp)
  1026a7:	e9 bd 00 00 00       	jmpq   102769 <kernel_longmode_entry+0x1a0>
  1026ac:	48 8b 45 f8          	mov    -0x8(%rbp),%rax
  1026b0:	8b 00                	mov    (%rax),%eax
  1026b2:	89 c2                	mov    %eax,%edx
  1026b4:	be 26 41 10 00       	mov    $0x104126,%esi
  1026b9:	bf 00 b0 10 00       	mov    $0x10b000,%edi
  1026be:	b8 00 00 00 00       	mov    $0x0,%eax
  1026c3:	e8 0b 07 00 00       	callq  102dd3 <console_write_fmt>
  1026c8:	48 8b 45 f8          	mov    -0x8(%rbp),%rax
  1026cc:	8b 00                	mov    (%rax),%eax
  1026ce:	83 f8 0e             	cmp    $0xe,%eax
  1026d1:	74 07                	je     1026da <kernel_longmode_entry+0x111>
  1026d3:	83 f8 0f             	cmp    $0xf,%eax
  1026d6:	74 42                	je     10271a <kernel_longmode_entry+0x151>
  1026d8:	eb 7c                	jmp    102756 <kernel_longmode_entry+0x18d>
  1026da:	48 8b 45 f8          	mov    -0x8(%rbp),%rax
  1026de:	48 89 45 e0          	mov    %rax,-0x20(%rbp)
  1026e2:	48 8b 45 e0          	mov    -0x20(%rbp),%rax
  1026e6:	48 83 c0 08          	add    $0x8,%rax
  1026ea:	48 89 c2             	mov    %rax,%rdx
  1026ed:	be 38 41 10 00       	mov    $0x104138,%esi
  1026f2:	bf 00 b0 10 00       	mov    $0x10b000,%edi
  1026f7:	b8 00 00 00 00       	mov    $0x0,%eax
  1026fc:	e8 d2 06 00 00       	callq  102dd3 <console_write_fmt>
  102701:	48 8b 45 e0          	mov    -0x20(%rbp),%rax
  102705:	48 8d 50 08          	lea    0x8(%rax),%rdx
  102709:	48 8d 45 a0          	lea    -0x60(%rbp),%rax
  10270d:	48 89 c6             	mov    %rax,%rsi
  102710:	48 89 d7             	mov    %rdx,%rdi
  102713:	e8 3b ed ff ff       	callq  101453 <parse_root_system_descriptor>
  102718:	eb 3c                	jmp    102756 <kernel_longmode_entry+0x18d>
  10271a:	be 61 41 10 00       	mov    $0x104161,%esi
  10271f:	bf 00 b0 10 00       	mov    $0x10b000,%edi
  102724:	b8 00 00 00 00       	mov    $0x0,%eax
  102729:	e8 a5 06 00 00       	callq  102dd3 <console_write_fmt>
  10272e:	48 8b 45 f8          	mov    -0x8(%rbp),%rax
  102732:	48 89 45 d8          	mov    %rax,-0x28(%rbp)
  102736:	48 8b 45 d8          	mov    -0x28(%rbp),%rax
  10273a:	48 83 c0 08          	add    $0x8,%rax
  10273e:	48 89 45 d0          	mov    %rax,-0x30(%rbp)
  102742:	48 8b 45 d0          	mov    -0x30(%rbp),%rax
  102746:	48 8d 55 a0          	lea    -0x60(%rbp),%rdx
  10274a:	48 89 d6             	mov    %rdx,%rsi
  10274d:	48 89 c7             	mov    %rax,%rdi
  102750:	e8 fe ec ff ff       	callq  101453 <parse_root_system_descriptor>
  102755:	90                   	nop
  102756:	48 8b 45 f8          	mov    -0x8(%rbp),%rax
  10275a:	8b 40 04             	mov    0x4(%rax),%eax
  10275d:	83 c0 07             	add    $0x7,%eax
  102760:	89 c0                	mov    %eax,%eax
  102762:	83 e0 f8             	and    $0xfffffff8,%eax
  102765:	48 01 45 f8          	add    %rax,-0x8(%rbp)
  102769:	48 8b 45 f8          	mov    -0x8(%rbp),%rax
  10276d:	8b 00                	mov    (%rax),%eax
  10276f:	85 c0                	test   %eax,%eax
  102771:	0f 85 35 ff ff ff    	jne    1026ac <kernel_longmode_entry+0xe3>
  102777:	be 75 41 10 00       	mov    $0x104175,%esi
  10277c:	bf 00 b0 10 00       	mov    $0x10b000,%edi
  102781:	b8 00 00 00 00       	mov    $0x0,%eax
  102786:	e8 48 06 00 00       	callq  102dd3 <console_write_fmt>
  10278b:	48 8b 45 a0          	mov    -0x60(%rbp),%rax
  10278f:	48 89 c2             	mov    %rax,%rdx
  102792:	be 82 41 10 00       	mov    $0x104182,%esi
  102797:	bf 00 b0 10 00       	mov    $0x10b000,%edi
  10279c:	b8 00 00 00 00       	mov    $0x0,%eax
  1027a1:	e8 2d 06 00 00       	callq  102dd3 <console_write_fmt>
  1027a6:	48 8b 45 a8          	mov    -0x58(%rbp),%rax
  1027aa:	48 89 c2             	mov    %rax,%rdx
  1027ad:	be 9c 41 10 00       	mov    $0x10419c,%esi
  1027b2:	bf 00 b0 10 00       	mov    $0x10b000,%edi
  1027b7:	b8 00 00 00 00       	mov    $0x0,%eax
  1027bc:	e8 12 06 00 00       	callq  102dd3 <console_write_fmt>
  1027c1:	ba 40 f0 0f 00       	mov    $0xff040,%edx
  1027c6:	be b5 41 10 00       	mov    $0x1041b5,%esi
  1027cb:	bf 00 b0 10 00       	mov    $0x10b000,%edi
  1027d0:	b8 00 00 00 00       	mov    $0x0,%eax
  1027d5:	e8 f9 05 00 00       	callq  102dd3 <console_write_fmt>
  1027da:	ba 00 f0 0f 00       	mov    $0xff000,%edx
  1027df:	be cc 41 10 00       	mov    $0x1041cc,%esi
  1027e4:	bf 00 b0 10 00       	mov    $0x10b000,%edi
  1027e9:	b8 00 00 00 00       	mov    $0x0,%eax
  1027ee:	e8 e0 05 00 00       	callq  102dd3 <console_write_fmt>
  1027f3:	48 c7 45 90 00 00 00 	movq   $0x0,-0x70(%rbp)
  1027fa:	00 
  1027fb:	48 8b 45 a8          	mov    -0x58(%rbp),%rax
  1027ff:	48 8d 4d 90          	lea    -0x70(%rbp),%rcx
  102803:	48 8d 55 98          	lea    -0x68(%rbp),%rdx
  102807:	be 01 00 00 00       	mov    $0x1,%esi
  10280c:	48 89 c7             	mov    %rax,%rdi
  10280f:	e8 17 fc ff ff       	callq  10242b <silly_page_map>
  102814:	48 89 45 c8          	mov    %rax,-0x38(%rbp)
  102818:	48 8b 55 90          	mov    -0x70(%rbp),%rdx
  10281c:	48 8b 45 c8          	mov    -0x38(%rbp),%rax
  102820:	48 01 d0             	add    %rdx,%rax
  102823:	48 89 45 c0          	mov    %rax,-0x40(%rbp)
  102827:	48 8b 45 c0          	mov    -0x40(%rbp),%rax
  10282b:	48 89 c7             	mov    %rax,%rdi
  10282e:	e8 56 ef ff ff       	callq  101789 <lapic_initalize>
  102833:	0f b6 05 06 c8 ff ff 	movzbl -0x37fa(%rip),%eax        # ff040 <DarkCactus>
  10283a:	0f b6 c0             	movzbl %al,%eax
  10283d:	89 c2                	mov    %eax,%edx
  10283f:	be e3 41 10 00       	mov    $0x1041e3,%esi
  102844:	bf 00 b0 10 00       	mov    $0x10b000,%edi
  102849:	b8 00 00 00 00       	mov    $0x0,%eax
  10284e:	e8 80 05 00 00       	callq  102dd3 <console_write_fmt>
  102853:	48 8b 45 c0          	mov    -0x40(%rbp),%rax
  102857:	ba ff 00 00 00       	mov    $0xff,%edx
  10285c:	be 01 00 00 00       	mov    $0x1,%esi
  102861:	48 89 c7             	mov    %rax,%rdi
  102864:	e8 f8 ef ff ff       	callq  101861 <initalize_cpu>
  102869:	48 c7 45 f0 00 00 00 	movq   $0x0,-0x10(%rbp)
  102870:	00 
  102871:	eb 06                	jmp    102879 <kernel_longmode_entry+0x2b0>
  102873:	90                   	nop
  102874:	48 83 45 f0 01       	addq   $0x1,-0x10(%rbp)
  102879:	48 81 7d f0 9f 86 01 	cmpq   $0x1869f,-0x10(%rbp)
  102880:	00 
  102881:	76 f0                	jbe    102873 <kernel_longmode_entry+0x2aa>
  102883:	0f b6 05 b6 c7 ff ff 	movzbl -0x384a(%rip),%eax        # ff040 <DarkCactus>
  10288a:	0f b6 c0             	movzbl %al,%eax
  10288d:	89 c2                	mov    %eax,%edx
  10288f:	be e3 41 10 00       	mov    $0x1041e3,%esi
  102894:	bf 00 b0 10 00       	mov    $0x10b000,%edi
  102899:	b8 00 00 00 00       	mov    $0x0,%eax
  10289e:	e8 30 05 00 00       	callq  102dd3 <console_write_fmt>
  1028a3:	be 00 b0 10 00       	mov    $0x10b000,%esi
  1028a8:	bf 10 11 11 00       	mov    $0x111110,%edi
  1028ad:	e8 b5 0d 00 00       	callq  103667 <redraw_vga_text_terminal_if_dirty>
  1028b2:	f4                   	hlt    
  1028b3:	eb ee                	jmp    1028a3 <kernel_longmode_entry+0x2da>

00000000001028b5 <isr_handler_page_fault>:
  1028b5:	55                   	push   %rbp
  1028b6:	48 89 e5             	mov    %rsp,%rbp
  1028b9:	48 83 ec 30          	sub    $0x30,%rsp
  1028bd:	0f 20 d0             	mov    %cr2,%rax
  1028c0:	48 89 45 f8          	mov    %rax,-0x8(%rbp)
  1028c4:	48 8b 55 30          	mov    0x30(%rbp),%rdx
  1028c8:	48 8b 05 b9 1b 00 00 	mov    0x1bb9(%rip),%rax        # 104488 <CAUSE_PROTECTION_VIOLATION_OR_NOT_PRESENT.2095>
  1028cf:	48 21 d0             	and    %rdx,%rax
  1028d2:	48 89 45 f0          	mov    %rax,-0x10(%rbp)
  1028d6:	48 8b 55 30          	mov    0x30(%rbp),%rdx
  1028da:	48 8b 05 af 1b 00 00 	mov    0x1baf(%rip),%rax        # 104490 <CAUSE_WRITE_OR_READ.2096>
  1028e1:	48 21 d0             	and    %rdx,%rax
  1028e4:	48 89 45 e8          	mov    %rax,-0x18(%rbp)
  1028e8:	48 8b 55 30          	mov    0x30(%rbp),%rdx
  1028ec:	48 8b 05 a5 1b 00 00 	mov    0x1ba5(%rip),%rax        # 104498 <CAUSE_USER_OR_KERNEL.2097>
  1028f3:	48 21 d0             	and    %rdx,%rax
  1028f6:	48 89 45 e0          	mov    %rax,-0x20(%rbp)
  1028fa:	48 8b 55 30          	mov    0x30(%rbp),%rdx
  1028fe:	48 8b 05 9b 1b 00 00 	mov    0x1b9b(%rip),%rax        # 1044a0 <CAUSE_RESERVED_BIT_SET.2098>
  102905:	48 21 d0             	and    %rdx,%rax
  102908:	48 89 45 d8          	mov    %rax,-0x28(%rbp)
  10290c:	48 8b 55 30          	mov    0x30(%rbp),%rdx
  102910:	48 8b 05 91 1b 00 00 	mov    0x1b91(%rip),%rax        # 1044a8 <CAUSE_INSTRUCTION_FETCH.2099>
  102917:	48 21 d0             	and    %rdx,%rax
  10291a:	48 89 45 d0          	mov    %rax,-0x30(%rbp)
  10291e:	48 83 7d d0 00       	cmpq   $0x0,-0x30(%rbp)
  102923:	74 07                	je     10292c <isr_handler_page_fault+0x77>
  102925:	b9 f2 41 10 00       	mov    $0x1041f2,%ecx
  10292a:	eb 05                	jmp    102931 <isr_handler_page_fault+0x7c>
  10292c:	b9 0e 42 10 00       	mov    $0x10420e,%ecx
  102931:	48 83 7d d8 00       	cmpq   $0x0,-0x28(%rbp)
  102936:	74 07                	je     10293f <isr_handler_page_fault+0x8a>
  102938:	bf 28 42 10 00       	mov    $0x104228,%edi
  10293d:	eb 05                	jmp    102944 <isr_handler_page_fault+0x8f>
  10293f:	bf 49 42 10 00       	mov    $0x104249,%edi
  102944:	48 83 7d e0 00       	cmpq   $0x0,-0x20(%rbp)
  102949:	74 07                	je     102952 <isr_handler_page_fault+0x9d>
  10294b:	be 62 42 10 00       	mov    $0x104262,%esi
  102950:	eb 05                	jmp    102957 <isr_handler_page_fault+0xa2>
  102952:	be 7a 42 10 00       	mov    $0x10427a,%esi
  102957:	48 83 7d e8 00       	cmpq   $0x0,-0x18(%rbp)
  10295c:	74 07                	je     102965 <isr_handler_page_fault+0xb0>
  10295e:	ba 94 42 10 00       	mov    $0x104294,%edx
  102963:	eb 05                	jmp    10296a <isr_handler_page_fault+0xb5>
  102965:	ba aa 42 10 00       	mov    $0x1042aa,%edx
  10296a:	48 83 7d f0 00       	cmpq   $0x0,-0x10(%rbp)
  10296f:	74 07                	je     102978 <isr_handler_page_fault+0xc3>
  102971:	b8 c0 42 10 00       	mov    $0x1042c0,%eax
  102976:	eb 05                	jmp    10297d <isr_handler_page_fault+0xc8>
  102978:	b8 e1 42 10 00       	mov    $0x1042e1,%eax
  10297d:	ff 75 f8             	pushq  -0x8(%rbp)
  102980:	51                   	push   %rcx
  102981:	49 89 f9             	mov    %rdi,%r9
  102984:	49 89 f0             	mov    %rsi,%r8
  102987:	48 89 d1             	mov    %rdx,%rcx
  10298a:	48 89 c2             	mov    %rax,%rdx
  10298d:	be f8 42 10 00       	mov    $0x1042f8,%esi
  102992:	bf 00 b0 10 00       	mov    $0x10b000,%edi
  102997:	b8 00 00 00 00       	mov    $0x0,%eax
  10299c:	e8 32 04 00 00       	callq  102dd3 <console_write_fmt>
  1029a1:	48 83 c4 10          	add    $0x10,%rsp
  1029a5:	48 8b 45 f8          	mov    -0x8(%rbp),%rax
  1029a9:	48 89 c7             	mov    %rax,%rdi
  1029ac:	e8 e5 f8 ff ff       	callq  102296 <print_virtual_address_info_2MB>
  1029b1:	48 83 7d e0 00       	cmpq   $0x0,-0x20(%rbp)
  1029b6:	75 1c                	jne    1029d4 <isr_handler_page_fault+0x11f>
  1029b8:	b8 00 00 00 00       	mov    $0x0,%eax
  1029bd:	e8 b6 f6 ff ff       	callq  102078 <log_page_info>
  1029c2:	be 00 b0 10 00       	mov    $0x10b000,%esi
  1029c7:	bf 10 11 11 00       	mov    $0x111110,%edi
  1029cc:	e8 96 0c 00 00       	callq  103667 <redraw_vga_text_terminal_if_dirty>
  1029d1:	f4                   	hlt    
  1029d2:	eb 24                	jmp    1029f8 <isr_handler_page_fault+0x143>
  1029d4:	be 28 43 10 00       	mov    $0x104328,%esi
  1029d9:	bf 00 b0 10 00       	mov    $0x10b000,%edi
  1029de:	b8 00 00 00 00       	mov    $0x0,%eax
  1029e3:	e8 eb 03 00 00       	callq  102dd3 <console_write_fmt>
  1029e8:	be 00 b0 10 00       	mov    $0x10b000,%esi
  1029ed:	bf 10 11 11 00       	mov    $0x111110,%edi
  1029f2:	e8 70 0c 00 00       	callq  103667 <redraw_vga_text_terminal_if_dirty>
  1029f7:	f4                   	hlt    
  1029f8:	90                   	nop
  1029f9:	c9                   	leaveq 
  1029fa:	c3                   	retq   

00000000001029fb <isr_common_handler>:
  1029fb:	55                   	push   %rbp
  1029fc:	48 89 e5             	mov    %rsp,%rbp
  1029ff:	48 8b 45 28          	mov    0x28(%rbp),%rax
  102a03:	48 89 c2             	mov    %rax,%rdx
  102a06:	be 50 43 10 00       	mov    $0x104350,%esi
  102a0b:	bf 00 b0 10 00       	mov    $0x10b000,%edi
  102a10:	b8 00 00 00 00       	mov    $0x0,%eax
  102a15:	e8 b9 03 00 00       	callq  102dd3 <console_write_fmt>
  102a1a:	48 8b 45 30          	mov    0x30(%rbp),%rax
  102a1e:	48 89 c2             	mov    %rax,%rdx
  102a21:	be 70 43 10 00       	mov    $0x104370,%esi
  102a26:	bf 00 b0 10 00       	mov    $0x10b000,%edi
  102a2b:	b8 00 00 00 00       	mov    $0x0,%eax
  102a30:	e8 9e 03 00 00       	callq  102dd3 <console_write_fmt>
  102a35:	48 8b 45 3c          	mov    0x3c(%rbp),%rax
  102a39:	48 89 c2             	mov    %rax,%rdx
  102a3c:	be 7f 43 10 00       	mov    $0x10437f,%esi
  102a41:	bf 00 b0 10 00       	mov    $0x10b000,%edi
  102a46:	b8 00 00 00 00       	mov    $0x0,%eax
  102a4b:	e8 83 03 00 00       	callq  102dd3 <console_write_fmt>
  102a50:	48 8b 45 28          	mov    0x28(%rbp),%rax
  102a54:	48 83 f8 0e          	cmp    $0xe,%rax
  102a58:	75 69                	jne    102ac3 <isr_common_handler+0xc8>
  102a5a:	48 83 ec 08          	sub    $0x8,%rsp
  102a5e:	48 83 ec 58          	sub    $0x58,%rsp
  102a62:	48 89 e0             	mov    %rsp,%rax
  102a65:	48 8b 55 10          	mov    0x10(%rbp),%rdx
  102a69:	48 89 10             	mov    %rdx,(%rax)
  102a6c:	48 8b 55 18          	mov    0x18(%rbp),%rdx
  102a70:	48 89 50 08          	mov    %rdx,0x8(%rax)
  102a74:	48 8b 55 20          	mov    0x20(%rbp),%rdx
  102a78:	48 89 50 10          	mov    %rdx,0x10(%rax)
  102a7c:	48 8b 55 28          	mov    0x28(%rbp),%rdx
  102a80:	48 89 50 18          	mov    %rdx,0x18(%rax)
  102a84:	48 8b 55 30          	mov    0x30(%rbp),%rdx
  102a88:	48 89 50 20          	mov    %rdx,0x20(%rax)
  102a8c:	48 8b 55 38          	mov    0x38(%rbp),%rdx
  102a90:	48 89 50 28          	mov    %rdx,0x28(%rax)
  102a94:	48 8b 55 40          	mov    0x40(%rbp),%rdx
  102a98:	48 89 50 30          	mov    %rdx,0x30(%rax)
  102a9c:	48 8b 55 48          	mov    0x48(%rbp),%rdx
  102aa0:	48 89 50 38          	mov    %rdx,0x38(%rax)
  102aa4:	48 8b 55 50          	mov    0x50(%rbp),%rdx
  102aa8:	48 89 50 40          	mov    %rdx,0x40(%rax)
  102aac:	48 8b 55 58          	mov    0x58(%rbp),%rdx
  102ab0:	48 89 50 48          	mov    %rdx,0x48(%rax)
  102ab4:	8b 55 60             	mov    0x60(%rbp),%edx
  102ab7:	89 50 50             	mov    %edx,0x50(%rax)
  102aba:	e8 f6 fd ff ff       	callq  1028b5 <isr_handler_page_fault>
  102abf:	48 83 c4 60          	add    $0x60,%rsp
  102ac3:	90                   	nop
  102ac4:	c9                   	leaveq 
  102ac5:	c3                   	retq   

0000000000102ac6 <irq_common_handler>:
  102ac6:	55                   	push   %rbp
  102ac7:	48 89 e5             	mov    %rsp,%rbp
  102aca:	48 83 ec 10          	sub    $0x10,%rsp
  102ace:	48 8b 45 28          	mov    0x28(%rbp),%rax
  102ad2:	48 8b 04 c5 40 21 11 	mov    0x112140(,%rax,8),%rax
  102ad9:	00 
  102ada:	48 85 c0             	test   %rax,%rax
  102add:	74 18                	je     102af7 <irq_common_handler+0x31>
  102adf:	48 8b 45 28          	mov    0x28(%rbp),%rax
  102ae3:	48 8b 04 c5 40 21 11 	mov    0x112140(,%rax,8),%rax
  102aea:	00 
  102aeb:	48 89 45 f8          	mov    %rax,-0x8(%rbp)
  102aef:	48 8b 45 f8          	mov    -0x8(%rbp),%rax
  102af3:	ff d0                	callq  *%rax
  102af5:	eb 38                	jmp    102b2f <irq_common_handler+0x69>
  102af7:	48 8b 55 28          	mov    0x28(%rbp),%rdx
  102afb:	b8 ff ff ff ff       	mov    $0xffffffff,%eax
  102b00:	48 39 c2             	cmp    %rax,%rdx
  102b03:	75 16                	jne    102b1b <irq_common_handler+0x55>
  102b05:	be 87 43 10 00       	mov    $0x104387,%esi
  102b0a:	bf 00 b0 10 00       	mov    $0x10b000,%edi
  102b0f:	b8 00 00 00 00       	mov    $0x0,%eax
  102b14:	e8 ba 02 00 00       	callq  102dd3 <console_write_fmt>
  102b19:	eb 5a                	jmp    102b75 <irq_common_handler+0xaf>
  102b1b:	be a0 43 10 00       	mov    $0x1043a0,%esi
  102b20:	bf 00 b0 10 00       	mov    $0x10b000,%edi
  102b25:	b8 00 00 00 00       	mov    $0x0,%eax
  102b2a:	e8 a4 02 00 00       	callq  102dd3 <console_write_fmt>
  102b2f:	48 8b 45 28          	mov    0x28(%rbp),%rax
  102b33:	48 83 f8 07          	cmp    $0x7,%rax
  102b37:	77 1f                	ja     102b58 <irq_common_handler+0x92>
  102b39:	0f b6 05 70 19 00 00 	movzbl 0x1970(%rip),%eax        # 1044b0 <PIC_EOI_CODE.2115>
  102b40:	0f b6 d0             	movzbl %al,%edx
  102b43:	0f b6 05 67 19 00 00 	movzbl 0x1967(%rip),%eax        # 1044b1 <PIC1_COMMAND_PORT.2113>
  102b4a:	0f b6 c0             	movzbl %al,%eax
  102b4d:	89 d6                	mov    %edx,%esi
  102b4f:	89 c7                	mov    %eax,%edi
  102b51:	e8 3f e7 ff ff       	callq  101295 <write_port>
  102b56:	eb 1d                	jmp    102b75 <irq_common_handler+0xaf>
  102b58:	0f b6 05 51 19 00 00 	movzbl 0x1951(%rip),%eax        # 1044b0 <PIC_EOI_CODE.2115>
  102b5f:	0f b6 d0             	movzbl %al,%edx
  102b62:	0f b6 05 49 19 00 00 	movzbl 0x1949(%rip),%eax        # 1044b2 <PIC2_COMMAND_PORT.2114>
  102b69:	0f b6 c0             	movzbl %al,%eax
  102b6c:	89 d6                	mov    %edx,%esi
  102b6e:	89 c7                	mov    %eax,%edi
  102b70:	e8 20 e7 ff ff       	callq  101295 <write_port>
  102b75:	c9                   	leaveq 
  102b76:	c3                   	retq   

0000000000102b77 <irq_handler_keyboard>:
  102b77:	55                   	push   %rbp
  102b78:	48 89 e5             	mov    %rsp,%rbp
  102b7b:	48 83 ec 10          	sub    $0x10,%rsp
  102b7f:	8b 05 2f 19 00 00    	mov    0x192f(%rip),%eax        # 1044b4 <KEYBOARD_STATUS_PORT.2119>
  102b85:	0f b7 c0             	movzwl %ax,%eax
  102b88:	89 c7                	mov    %eax,%edi
  102b8a:	e8 25 e7 ff ff       	callq  1012b4 <read_port>
  102b8f:	88 45 ff             	mov    %al,-0x1(%rbp)
  102b92:	0f b6 45 ff          	movzbl -0x1(%rbp),%eax
  102b96:	83 e0 01             	and    $0x1,%eax
  102b99:	85 c0                	test   %eax,%eax
  102b9b:	74 17                	je     102bb4 <irq_handler_keyboard+0x3d>
  102b9d:	8b 05 15 19 00 00    	mov    0x1915(%rip),%eax        # 1044b8 <KEYBOARD_DATA_PORT.2120>
  102ba3:	0f b7 c0             	movzwl %ax,%eax
  102ba6:	89 c7                	mov    %eax,%edi
  102ba8:	e8 07 e7 ff ff       	callq  1012b4 <read_port>
  102bad:	88 45 fe             	mov    %al,-0x2(%rbp)
  102bb0:	80 7d fe 00          	cmpb   $0x0,-0x2(%rbp)
  102bb4:	c9                   	leaveq 
  102bb5:	c3                   	retq   

0000000000102bb6 <irq_handler_pit>:
  102bb6:	55                   	push   %rbp
  102bb7:	48 89 e5             	mov    %rsp,%rbp
  102bba:	be 00 b0 10 00       	mov    $0x10b000,%esi
  102bbf:	bf 10 11 11 00       	mov    $0x111110,%edi
  102bc4:	e8 9e 0a 00 00       	callq  103667 <redraw_vga_text_terminal_if_dirty>
  102bc9:	90                   	nop
  102bca:	5d                   	pop    %rbp
  102bcb:	c3                   	retq   

0000000000102bcc <write_uint8_base16>:
  102bcc:	55                   	push   %rbp
  102bcd:	48 89 e5             	mov    %rsp,%rbp
  102bd0:	48 83 ec 20          	sub    $0x20,%rsp
  102bd4:	48 89 7d e8          	mov    %rdi,-0x18(%rbp)
  102bd8:	89 f0                	mov    %esi,%eax
  102bda:	88 45 e4             	mov    %al,-0x1c(%rbp)
  102bdd:	0f b6 45 e4          	movzbl -0x1c(%rbp),%eax
  102be1:	c0 e8 04             	shr    $0x4,%al
  102be4:	88 45 ff             	mov    %al,-0x1(%rbp)
  102be7:	0f b6 45 e4          	movzbl -0x1c(%rbp),%eax
  102beb:	83 e0 0f             	and    $0xf,%eax
  102bee:	88 45 fe             	mov    %al,-0x2(%rbp)
  102bf1:	80 7d ff 09          	cmpb   $0x9,-0x1(%rbp)
  102bf5:	76 11                	jbe    102c08 <write_uint8_base16+0x3c>
  102bf7:	0f b6 45 ff          	movzbl -0x1(%rbp),%eax
  102bfb:	83 c0 37             	add    $0x37,%eax
  102bfe:	89 c2                	mov    %eax,%edx
  102c00:	48 8b 45 e8          	mov    -0x18(%rbp),%rax
  102c04:	88 10                	mov    %dl,(%rax)
  102c06:	eb 0f                	jmp    102c17 <write_uint8_base16+0x4b>
  102c08:	0f b6 45 ff          	movzbl -0x1(%rbp),%eax
  102c0c:	83 c0 30             	add    $0x30,%eax
  102c0f:	89 c2                	mov    %eax,%edx
  102c11:	48 8b 45 e8          	mov    -0x18(%rbp),%rax
  102c15:	88 10                	mov    %dl,(%rax)
  102c17:	80 7d fe 09          	cmpb   $0x9,-0x2(%rbp)
  102c1b:	76 13                	jbe    102c30 <write_uint8_base16+0x64>
  102c1d:	48 8b 45 e8          	mov    -0x18(%rbp),%rax
  102c21:	48 83 c0 01          	add    $0x1,%rax
  102c25:	0f b6 55 fe          	movzbl -0x2(%rbp),%edx
  102c29:	83 c2 37             	add    $0x37,%edx
  102c2c:	88 10                	mov    %dl,(%rax)
  102c2e:	eb 11                	jmp    102c41 <write_uint8_base16+0x75>
  102c30:	48 8b 45 e8          	mov    -0x18(%rbp),%rax
  102c34:	48 83 c0 01          	add    $0x1,%rax
  102c38:	0f b6 55 fe          	movzbl -0x2(%rbp),%edx
  102c3c:	83 c2 30             	add    $0x30,%edx
  102c3f:	88 10                	mov    %dl,(%rax)
  102c41:	90                   	nop
  102c42:	c9                   	leaveq 
  102c43:	c3                   	retq   

0000000000102c44 <write_uint32_base16>:
  102c44:	55                   	push   %rbp
  102c45:	48 89 e5             	mov    %rsp,%rbp
  102c48:	48 83 ec 20          	sub    $0x20,%rsp
  102c4c:	48 89 7d e8          	mov    %rdi,-0x18(%rbp)
  102c50:	89 75 e4             	mov    %esi,-0x1c(%rbp)
  102c53:	8b 45 e4             	mov    -0x1c(%rbp),%eax
  102c56:	c1 e8 18             	shr    $0x18,%eax
  102c59:	88 45 ff             	mov    %al,-0x1(%rbp)
  102c5c:	8b 45 e4             	mov    -0x1c(%rbp),%eax
  102c5f:	c1 e8 10             	shr    $0x10,%eax
  102c62:	88 45 fe             	mov    %al,-0x2(%rbp)
  102c65:	8b 45 e4             	mov    -0x1c(%rbp),%eax
  102c68:	c1 e8 08             	shr    $0x8,%eax
  102c6b:	88 45 fd             	mov    %al,-0x3(%rbp)
  102c6e:	8b 45 e4             	mov    -0x1c(%rbp),%eax
  102c71:	88 45 fc             	mov    %al,-0x4(%rbp)
  102c74:	0f b6 55 ff          	movzbl -0x1(%rbp),%edx
  102c78:	48 8b 45 e8          	mov    -0x18(%rbp),%rax
  102c7c:	89 d6                	mov    %edx,%esi
  102c7e:	48 89 c7             	mov    %rax,%rdi
  102c81:	e8 46 ff ff ff       	callq  102bcc <write_uint8_base16>
  102c86:	0f b6 45 fe          	movzbl -0x2(%rbp),%eax
  102c8a:	48 8b 55 e8          	mov    -0x18(%rbp),%rdx
  102c8e:	48 83 c2 02          	add    $0x2,%rdx
  102c92:	89 c6                	mov    %eax,%esi
  102c94:	48 89 d7             	mov    %rdx,%rdi
  102c97:	e8 30 ff ff ff       	callq  102bcc <write_uint8_base16>
  102c9c:	0f b6 45 fd          	movzbl -0x3(%rbp),%eax
  102ca0:	48 8b 55 e8          	mov    -0x18(%rbp),%rdx
  102ca4:	48 83 c2 04          	add    $0x4,%rdx
  102ca8:	89 c6                	mov    %eax,%esi
  102caa:	48 89 d7             	mov    %rdx,%rdi
  102cad:	e8 1a ff ff ff       	callq  102bcc <write_uint8_base16>
  102cb2:	0f b6 45 fc          	movzbl -0x4(%rbp),%eax
  102cb6:	48 8b 55 e8          	mov    -0x18(%rbp),%rdx
  102cba:	48 83 c2 06          	add    $0x6,%rdx
  102cbe:	89 c6                	mov    %eax,%esi
  102cc0:	48 89 d7             	mov    %rdx,%rdi
  102cc3:	e8 04 ff ff ff       	callq  102bcc <write_uint8_base16>
  102cc8:	90                   	nop
  102cc9:	c9                   	leaveq 
  102cca:	c3                   	retq   

0000000000102ccb <append_console_entry>:
  102ccb:	55                   	push   %rbp
  102ccc:	48 89 e5             	mov    %rsp,%rbp
  102ccf:	48 83 ec 28          	sub    $0x28,%rsp
  102cd3:	89 7d ec             	mov    %edi,-0x14(%rbp)
  102cd6:	48 89 75 e0          	mov    %rsi,-0x20(%rbp)
  102cda:	89 55 e8             	mov    %edx,-0x18(%rbp)
  102cdd:	48 89 4d d8          	mov    %rcx,-0x28(%rbp)
  102ce1:	48 8b 45 d8          	mov    -0x28(%rbp),%rax
  102ce5:	8b 55 ec             	mov    -0x14(%rbp),%edx
  102ce8:	8b 54 90 04          	mov    0x4(%rax,%rdx,4),%edx
  102cec:	48 8b 45 d8          	mov    -0x28(%rbp),%rax
  102cf0:	8b 4d ec             	mov    -0x14(%rbp),%ecx
  102cf3:	48 81 c1 00 04 00 00 	add    $0x400,%rcx
  102cfa:	8b 44 88 04          	mov    0x4(%rax,%rcx,4),%eax
  102cfe:	25 ff 3f 00 00       	and    $0x3fff,%eax
  102d03:	01 d0                	add    %edx,%eax
  102d05:	89 c0                	mov    %eax,%eax
  102d07:	48 89 45 f8          	mov    %rax,-0x8(%rbp)
  102d0b:	8b 55 e8             	mov    -0x18(%rbp),%edx
  102d0e:	48 8b 45 f8          	mov    -0x8(%rbp),%rax
  102d12:	48 01 d0             	add    %rdx,%rax
  102d15:	48 3d 00 40 00 00    	cmp    $0x4000,%rax
  102d1b:	76 65                	jbe    102d82 <append_console_entry+0xb7>
  102d1d:	8b 55 e8             	mov    -0x18(%rbp),%edx
  102d20:	48 8b 45 f8          	mov    -0x8(%rbp),%rax
  102d24:	48 01 d0             	add    %rdx,%rax
  102d27:	ba 00 40 00 00       	mov    $0x4000,%edx
  102d2c:	48 29 c2             	sub    %rax,%rdx
  102d2f:	48 89 d0             	mov    %rdx,%rax
  102d32:	48 89 45 f0          	mov    %rax,-0x10(%rbp)
  102d36:	48 8b 45 d8          	mov    -0x28(%rbp),%rax
  102d3a:	48 8d 90 10 21 00 00 	lea    0x2110(%rax),%rdx
  102d41:	48 8b 45 f8          	mov    -0x8(%rbp),%rax
  102d45:	48 8d 0c 02          	lea    (%rdx,%rax,1),%rcx
  102d49:	48 8b 55 f0          	mov    -0x10(%rbp),%rdx
  102d4d:	48 8b 45 e0          	mov    -0x20(%rbp),%rax
  102d51:	48 89 c6             	mov    %rax,%rsi
  102d54:	48 89 cf             	mov    %rcx,%rdi
  102d57:	e8 d6 e5 ff ff       	callq  101332 <__memcpy>
  102d5c:	8b 45 e8             	mov    -0x18(%rbp),%eax
  102d5f:	48 2b 45 f0          	sub    -0x10(%rbp),%rax
  102d63:	48 89 c2             	mov    %rax,%rdx
  102d66:	48 8b 45 d8          	mov    -0x28(%rbp),%rax
  102d6a:	48 8d 88 10 21 00 00 	lea    0x2110(%rax),%rcx
  102d71:	48 8b 45 e0          	mov    -0x20(%rbp),%rax
  102d75:	48 89 c6             	mov    %rax,%rsi
  102d78:	48 89 cf             	mov    %rcx,%rdi
  102d7b:	e8 b2 e5 ff ff       	callq  101332 <__memcpy>
  102d80:	eb 24                	jmp    102da6 <append_console_entry+0xdb>
  102d82:	8b 55 e8             	mov    -0x18(%rbp),%edx
  102d85:	48 8b 45 d8          	mov    -0x28(%rbp),%rax
  102d89:	48 8d 88 10 21 00 00 	lea    0x2110(%rax),%rcx
  102d90:	48 8b 45 f8          	mov    -0x8(%rbp),%rax
  102d94:	48 01 c1             	add    %rax,%rcx
  102d97:	48 8b 45 e0          	mov    -0x20(%rbp),%rax
  102d9b:	48 89 c6             	mov    %rax,%rsi
  102d9e:	48 89 cf             	mov    %rcx,%rdi
  102da1:	e8 8c e5 ff ff       	callq  101332 <__memcpy>
  102da6:	48 8b 45 d8          	mov    -0x28(%rbp),%rax
  102daa:	8b 55 ec             	mov    -0x14(%rbp),%edx
  102dad:	48 81 c2 00 04 00 00 	add    $0x400,%rdx
  102db4:	8b 54 90 04          	mov    0x4(%rax,%rdx,4),%edx
  102db8:	8b 45 e8             	mov    -0x18(%rbp),%eax
  102dbb:	8d 0c 02             	lea    (%rdx,%rax,1),%ecx
  102dbe:	48 8b 45 d8          	mov    -0x28(%rbp),%rax
  102dc2:	8b 55 ec             	mov    -0x14(%rbp),%edx
  102dc5:	48 81 c2 00 04 00 00 	add    $0x400,%rdx
  102dcc:	89 4c 90 04          	mov    %ecx,0x4(%rax,%rdx,4)
  102dd0:	90                   	nop
  102dd1:	c9                   	leaveq 
  102dd2:	c3                   	retq   

0000000000102dd3 <console_write_fmt>:
  102dd3:	55                   	push   %rbp
  102dd4:	48 89 e5             	mov    %rsp,%rbp
  102dd7:	48 81 ec 80 01 00 00 	sub    $0x180,%rsp
  102dde:	48 89 bd 88 fe ff ff 	mov    %rdi,-0x178(%rbp)
  102de5:	48 89 b5 80 fe ff ff 	mov    %rsi,-0x180(%rbp)
  102dec:	48 89 95 60 ff ff ff 	mov    %rdx,-0xa0(%rbp)
  102df3:	48 89 8d 68 ff ff ff 	mov    %rcx,-0x98(%rbp)
  102dfa:	4c 89 85 70 ff ff ff 	mov    %r8,-0x90(%rbp)
  102e01:	4c 89 8d 78 ff ff ff 	mov    %r9,-0x88(%rbp)
  102e08:	84 c0                	test   %al,%al
  102e0a:	74 20                	je     102e2c <console_write_fmt+0x59>
  102e0c:	0f 29 45 80          	movaps %xmm0,-0x80(%rbp)
  102e10:	0f 29 4d 90          	movaps %xmm1,-0x70(%rbp)
  102e14:	0f 29 55 a0          	movaps %xmm2,-0x60(%rbp)
  102e18:	0f 29 5d b0          	movaps %xmm3,-0x50(%rbp)
  102e1c:	0f 29 65 c0          	movaps %xmm4,-0x40(%rbp)
  102e20:	0f 29 6d d0          	movaps %xmm5,-0x30(%rbp)
  102e24:	0f 29 75 e0          	movaps %xmm6,-0x20(%rbp)
  102e28:	0f 29 7d f0          	movaps %xmm7,-0x10(%rbp)
  102e2c:	0f b6 05 f5 e2 00 00 	movzbl 0xe2f5(%rip),%eax        # 111128 <globals+0x6128>
  102e33:	84 c0                	test   %al,%al
  102e35:	0f 85 8e 07 00 00    	jne    1035c9 <console_write_fmt+0x7f6>
  102e3b:	c7 85 b8 fe ff ff 10 	movl   $0x10,-0x148(%rbp)
  102e42:	00 00 00 
  102e45:	c7 85 bc fe ff ff 30 	movl   $0x30,-0x144(%rbp)
  102e4c:	00 00 00 
  102e4f:	48 8d 45 10          	lea    0x10(%rbp),%rax
  102e53:	48 89 85 c0 fe ff ff 	mov    %rax,-0x140(%rbp)
  102e5a:	48 8d 85 50 ff ff ff 	lea    -0xb0(%rbp),%rax
  102e61:	48 89 85 c8 fe ff ff 	mov    %rax,-0x138(%rbp)
  102e68:	48 8b 85 88 fe ff ff 	mov    -0x178(%rbp),%rax
  102e6f:	8b 80 08 20 00 00    	mov    0x2008(%rax),%eax
  102e75:	83 e8 01             	sub    $0x1,%eax
  102e78:	89 c0                	mov    %eax,%eax
  102e7a:	25 ff 03 00 00       	and    $0x3ff,%eax
  102e7f:	48 89 85 40 ff ff ff 	mov    %rax,-0xc0(%rbp)
  102e86:	48 8b 85 88 fe ff ff 	mov    -0x178(%rbp),%rax
  102e8d:	8b 80 08 20 00 00    	mov    0x2008(%rax),%eax
  102e93:	89 c0                	mov    %eax,%eax
  102e95:	25 ff 03 00 00       	and    $0x3ff,%eax
  102e9a:	48 89 85 38 ff ff ff 	mov    %rax,-0xc8(%rbp)
  102ea1:	48 8b 85 88 fe ff ff 	mov    -0x178(%rbp),%rax
  102ea8:	48 8b 95 40 ff ff ff 	mov    -0xc0(%rbp),%rdx
  102eaf:	8b 54 90 04          	mov    0x4(%rax,%rdx,4),%edx
  102eb3:	48 8b 85 88 fe ff ff 	mov    -0x178(%rbp),%rax
  102eba:	48 8b 8d 40 ff ff ff 	mov    -0xc0(%rbp),%rcx
  102ec1:	48 81 c1 00 04 00 00 	add    $0x400,%rcx
  102ec8:	8b 44 88 04          	mov    0x4(%rax,%rcx,4),%eax
  102ecc:	8d 0c 02             	lea    (%rdx,%rax,1),%ecx
  102ecf:	48 8b 85 88 fe ff ff 	mov    -0x178(%rbp),%rax
  102ed6:	48 8b 95 38 ff ff ff 	mov    -0xc8(%rbp),%rdx
  102edd:	89 4c 90 04          	mov    %ecx,0x4(%rax,%rdx,4)
  102ee1:	48 8b 85 88 fe ff ff 	mov    -0x178(%rbp),%rax
  102ee8:	8b 80 0c 20 00 00    	mov    0x200c(%rax),%eax
  102eee:	89 c2                	mov    %eax,%edx
  102ef0:	48 8b 85 38 ff ff ff 	mov    -0xc8(%rbp),%rax
  102ef7:	48 83 e8 01          	sub    $0x1,%rax
  102efb:	25 ff 03 00 00       	and    $0x3ff,%eax
  102f00:	48 39 c2             	cmp    %rax,%rdx
  102f03:	75 1d                	jne    102f22 <console_write_fmt+0x14f>
  102f05:	48 8b 85 88 fe ff ff 	mov    -0x178(%rbp),%rax
  102f0c:	8b 80 0c 20 00 00    	mov    0x200c(%rax),%eax
  102f12:	8d 50 01             	lea    0x1(%rax),%edx
  102f15:	48 8b 85 88 fe ff ff 	mov    -0x178(%rbp),%rax
  102f1c:	89 90 0c 20 00 00    	mov    %edx,0x200c(%rax)
  102f22:	48 8b 85 88 fe ff ff 	mov    -0x178(%rbp),%rax
  102f29:	8b 80 08 20 00 00    	mov    0x2008(%rax),%eax
  102f2f:	8d 50 01             	lea    0x1(%rax),%edx
  102f32:	48 8b 85 88 fe ff ff 	mov    -0x178(%rbp),%rax
  102f39:	89 90 08 20 00 00    	mov    %edx,0x2008(%rax)
  102f3f:	48 8b 85 88 fe ff ff 	mov    -0x178(%rbp),%rax
  102f46:	8b 80 04 20 00 00    	mov    0x2004(%rax),%eax
  102f4c:	3d ff 03 00 00       	cmp    $0x3ff,%eax
  102f51:	77 1d                	ja     102f70 <console_write_fmt+0x19d>
  102f53:	48 8b 85 88 fe ff ff 	mov    -0x178(%rbp),%rax
  102f5a:	8b 80 04 20 00 00    	mov    0x2004(%rax),%eax
  102f60:	8d 50 01             	lea    0x1(%rax),%edx
  102f63:	48 8b 85 88 fe ff ff 	mov    -0x178(%rbp),%rax
  102f6a:	89 90 04 20 00 00    	mov    %edx,0x2004(%rax)
  102f70:	48 c7 85 48 ff ff ff 	movq   $0x0,-0xb8(%rbp)
  102f77:	00 00 00 00 
  102f7b:	e9 f3 04 00 00       	jmpq   103473 <console_write_fmt+0x6a0>
  102f80:	48 8b 95 80 fe ff ff 	mov    -0x180(%rbp),%rdx
  102f87:	48 8b 85 48 ff ff ff 	mov    -0xb8(%rbp),%rax
  102f8e:	48 01 d0             	add    %rdx,%rax
  102f91:	0f b6 00             	movzbl (%rax),%eax
  102f94:	3c 25                	cmp    $0x25,%al
  102f96:	0f 85 43 04 00 00    	jne    1033df <console_write_fmt+0x60c>
  102f9c:	48 83 85 48 ff ff ff 	addq   $0x1,-0xb8(%rbp)
  102fa3:	01 
  102fa4:	48 8b 95 80 fe ff ff 	mov    -0x180(%rbp),%rdx
  102fab:	48 8b 85 48 ff ff ff 	mov    -0xb8(%rbp),%rax
  102fb2:	48 01 d0             	add    %rdx,%rax
  102fb5:	0f b6 00             	movzbl (%rax),%eax
  102fb8:	3c 6c                	cmp    $0x6c,%al
  102fba:	0f 85 04 01 00 00    	jne    1030c4 <console_write_fmt+0x2f1>
  102fc0:	48 83 85 48 ff ff ff 	addq   $0x1,-0xb8(%rbp)
  102fc7:	01 
  102fc8:	48 8b 95 80 fe ff ff 	mov    -0x180(%rbp),%rdx
  102fcf:	48 8b 85 48 ff ff ff 	mov    -0xb8(%rbp),%rax
  102fd6:	48 01 d0             	add    %rdx,%rax
  102fd9:	0f b6 00             	movzbl (%rax),%eax
  102fdc:	3c 75                	cmp    $0x75,%al
  102fde:	0f 85 8f 04 00 00    	jne    103473 <console_write_fmt+0x6a0>
  102fe4:	8b 85 b8 fe ff ff    	mov    -0x148(%rbp),%eax
  102fea:	83 f8 2f             	cmp    $0x2f,%eax
  102fed:	77 23                	ja     103012 <console_write_fmt+0x23f>
  102fef:	48 8b 85 c8 fe ff ff 	mov    -0x138(%rbp),%rax
  102ff6:	8b 95 b8 fe ff ff    	mov    -0x148(%rbp),%edx
  102ffc:	89 d2                	mov    %edx,%edx
  102ffe:	48 01 d0             	add    %rdx,%rax
  103001:	8b 95 b8 fe ff ff    	mov    -0x148(%rbp),%edx
  103007:	83 c2 08             	add    $0x8,%edx
  10300a:	89 95 b8 fe ff ff    	mov    %edx,-0x148(%rbp)
  103010:	eb 12                	jmp    103024 <console_write_fmt+0x251>
  103012:	48 8b 85 c0 fe ff ff 	mov    -0x140(%rbp),%rax
  103019:	48 8d 50 08          	lea    0x8(%rax),%rdx
  10301d:	48 89 95 c0 fe ff ff 	mov    %rdx,-0x140(%rbp)
  103024:	48 8b 00             	mov    (%rax),%rax
  103027:	48 89 85 30 ff ff ff 	mov    %rax,-0xd0(%rbp)
  10302e:	48 8b 85 30 ff ff ff 	mov    -0xd0(%rbp),%rax
  103035:	48 c1 e8 20          	shr    $0x20,%rax
  103039:	89 85 2c ff ff ff    	mov    %eax,-0xd4(%rbp)
  10303f:	48 8b 85 30 ff ff ff 	mov    -0xd0(%rbp),%rax
  103046:	89 85 28 ff ff ff    	mov    %eax,-0xd8(%rbp)
  10304c:	c6 85 a0 fe ff ff 30 	movb   $0x30,-0x160(%rbp)
  103053:	c6 85 a1 fe ff ff 78 	movb   $0x78,-0x15f(%rbp)
  10305a:	48 8d 85 a0 fe ff ff 	lea    -0x160(%rbp),%rax
  103061:	48 83 c0 02          	add    $0x2,%rax
  103065:	8b 95 2c ff ff ff    	mov    -0xd4(%rbp),%edx
  10306b:	89 d6                	mov    %edx,%esi
  10306d:	48 89 c7             	mov    %rax,%rdi
  103070:	e8 cf fb ff ff       	callq  102c44 <write_uint32_base16>
  103075:	48 8d 85 a0 fe ff ff 	lea    -0x160(%rbp),%rax
  10307c:	48 83 c0 0a          	add    $0xa,%rax
  103080:	8b 95 28 ff ff ff    	mov    -0xd8(%rbp),%edx
  103086:	89 d6                	mov    %edx,%esi
  103088:	48 89 c7             	mov    %rax,%rdi
  10308b:	e8 b4 fb ff ff       	callq  102c44 <write_uint32_base16>
  103090:	48 8b 85 38 ff ff ff 	mov    -0xc8(%rbp),%rax
  103097:	89 c7                	mov    %eax,%edi
  103099:	48 8b 95 88 fe ff ff 	mov    -0x178(%rbp),%rdx
  1030a0:	48 8d 85 a0 fe ff ff 	lea    -0x160(%rbp),%rax
  1030a7:	48 89 d1             	mov    %rdx,%rcx
  1030aa:	ba 12 00 00 00       	mov    $0x12,%edx
  1030af:	48 89 c6             	mov    %rax,%rsi
  1030b2:	e8 14 fc ff ff       	callq  102ccb <append_console_entry>
  1030b7:	48 83 85 48 ff ff ff 	addq   $0x1,-0xb8(%rbp)
  1030be:	01 
  1030bf:	e9 af 03 00 00       	jmpq   103473 <console_write_fmt+0x6a0>
  1030c4:	48 8b 95 80 fe ff ff 	mov    -0x180(%rbp),%rdx
  1030cb:	48 8b 85 48 ff ff ff 	mov    -0xb8(%rbp),%rax
  1030d2:	48 01 d0             	add    %rdx,%rax
  1030d5:	0f b6 00             	movzbl (%rax),%eax
  1030d8:	3c 75                	cmp    $0x75,%al
  1030da:	0f 85 33 01 00 00    	jne    103213 <console_write_fmt+0x440>
  1030e0:	8b 85 b8 fe ff ff    	mov    -0x148(%rbp),%eax
  1030e6:	83 f8 2f             	cmp    $0x2f,%eax
  1030e9:	77 23                	ja     10310e <console_write_fmt+0x33b>
  1030eb:	48 8b 85 c8 fe ff ff 	mov    -0x138(%rbp),%rax
  1030f2:	8b 95 b8 fe ff ff    	mov    -0x148(%rbp),%edx
  1030f8:	89 d2                	mov    %edx,%edx
  1030fa:	48 01 d0             	add    %rdx,%rax
  1030fd:	8b 95 b8 fe ff ff    	mov    -0x148(%rbp),%edx
  103103:	83 c2 08             	add    $0x8,%edx
  103106:	89 95 b8 fe ff ff    	mov    %edx,-0x148(%rbp)
  10310c:	eb 12                	jmp    103120 <console_write_fmt+0x34d>
  10310e:	48 8b 85 c0 fe ff ff 	mov    -0x140(%rbp),%rax
  103115:	48 8d 50 08          	lea    0x8(%rax),%rdx
  103119:	48 89 95 c0 fe ff ff 	mov    %rdx,-0x140(%rbp)
  103120:	8b 00                	mov    (%rax),%eax
  103122:	89 85 24 ff ff ff    	mov    %eax,-0xdc(%rbp)
  103128:	8b 85 24 ff ff ff    	mov    -0xdc(%rbp),%eax
  10312e:	c1 e8 18             	shr    $0x18,%eax
  103131:	88 85 23 ff ff ff    	mov    %al,-0xdd(%rbp)
  103137:	8b 85 24 ff ff ff    	mov    -0xdc(%rbp),%eax
  10313d:	c1 e8 10             	shr    $0x10,%eax
  103140:	88 85 22 ff ff ff    	mov    %al,-0xde(%rbp)
  103146:	8b 85 24 ff ff ff    	mov    -0xdc(%rbp),%eax
  10314c:	c1 e8 08             	shr    $0x8,%eax
  10314f:	88 85 21 ff ff ff    	mov    %al,-0xdf(%rbp)
  103155:	8b 85 24 ff ff ff    	mov    -0xdc(%rbp),%eax
  10315b:	88 85 20 ff ff ff    	mov    %al,-0xe0(%rbp)
  103161:	c6 85 90 fe ff ff 30 	movb   $0x30,-0x170(%rbp)
  103168:	c6 85 91 fe ff ff 78 	movb   $0x78,-0x16f(%rbp)
  10316f:	0f b6 95 23 ff ff ff 	movzbl -0xdd(%rbp),%edx
  103176:	48 8d 85 90 fe ff ff 	lea    -0x170(%rbp),%rax
  10317d:	48 83 c0 02          	add    $0x2,%rax
  103181:	89 d6                	mov    %edx,%esi
  103183:	48 89 c7             	mov    %rax,%rdi
  103186:	e8 41 fa ff ff       	callq  102bcc <write_uint8_base16>
  10318b:	0f b6 95 22 ff ff ff 	movzbl -0xde(%rbp),%edx
  103192:	48 8d 85 90 fe ff ff 	lea    -0x170(%rbp),%rax
  103199:	48 83 c0 04          	add    $0x4,%rax
  10319d:	89 d6                	mov    %edx,%esi
  10319f:	48 89 c7             	mov    %rax,%rdi
  1031a2:	e8 25 fa ff ff       	callq  102bcc <write_uint8_base16>
  1031a7:	0f b6 95 21 ff ff ff 	movzbl -0xdf(%rbp),%edx
  1031ae:	48 8d 85 90 fe ff ff 	lea    -0x170(%rbp),%rax
  1031b5:	48 83 c0 06          	add    $0x6,%rax
  1031b9:	89 d6                	mov    %edx,%esi
  1031bb:	48 89 c7             	mov    %rax,%rdi
  1031be:	e8 09 fa ff ff       	callq  102bcc <write_uint8_base16>
  1031c3:	0f b6 95 20 ff ff ff 	movzbl -0xe0(%rbp),%edx
  1031ca:	48 8d 85 90 fe ff ff 	lea    -0x170(%rbp),%rax
  1031d1:	48 83 c0 08          	add    $0x8,%rax
  1031d5:	89 d6                	mov    %edx,%esi
  1031d7:	48 89 c7             	mov    %rax,%rdi
  1031da:	e8 ed f9 ff ff       	callq  102bcc <write_uint8_base16>
  1031df:	48 8b 85 38 ff ff ff 	mov    -0xc8(%rbp),%rax
  1031e6:	89 c7                	mov    %eax,%edi
  1031e8:	48 8b 95 88 fe ff ff 	mov    -0x178(%rbp),%rdx
  1031ef:	48 8d 85 90 fe ff ff 	lea    -0x170(%rbp),%rax
  1031f6:	48 89 d1             	mov    %rdx,%rcx
  1031f9:	ba 0a 00 00 00       	mov    $0xa,%edx
  1031fe:	48 89 c6             	mov    %rax,%rsi
  103201:	e8 c5 fa ff ff       	callq  102ccb <append_console_entry>
  103206:	48 83 85 48 ff ff ff 	addq   $0x1,-0xb8(%rbp)
  10320d:	01 
  10320e:	e9 60 02 00 00       	jmpq   103473 <console_write_fmt+0x6a0>
  103213:	48 8b 95 80 fe ff ff 	mov    -0x180(%rbp),%rdx
  10321a:	48 8b 85 48 ff ff ff 	mov    -0xb8(%rbp),%rax
  103221:	48 01 d0             	add    %rdx,%rax
  103224:	0f b6 00             	movzbl (%rax),%eax
  103227:	3c 73                	cmp    $0x73,%al
  103229:	0f 85 9a 00 00 00    	jne    1032c9 <console_write_fmt+0x4f6>
  10322f:	8b 85 b8 fe ff ff    	mov    -0x148(%rbp),%eax
  103235:	83 f8 2f             	cmp    $0x2f,%eax
  103238:	77 23                	ja     10325d <console_write_fmt+0x48a>
  10323a:	48 8b 85 c8 fe ff ff 	mov    -0x138(%rbp),%rax
  103241:	8b 95 b8 fe ff ff    	mov    -0x148(%rbp),%edx
  103247:	89 d2                	mov    %edx,%edx
  103249:	48 01 d0             	add    %rdx,%rax
  10324c:	8b 95 b8 fe ff ff    	mov    -0x148(%rbp),%edx
  103252:	83 c2 08             	add    $0x8,%edx
  103255:	89 95 b8 fe ff ff    	mov    %edx,-0x148(%rbp)
  10325b:	eb 12                	jmp    10326f <console_write_fmt+0x49c>
  10325d:	48 8b 85 c0 fe ff ff 	mov    -0x140(%rbp),%rax
  103264:	48 8d 50 08          	lea    0x8(%rax),%rdx
  103268:	48 89 95 c0 fe ff ff 	mov    %rdx,-0x140(%rbp)
  10326f:	48 8b 00             	mov    (%rax),%rax
  103272:	48 89 85 18 ff ff ff 	mov    %rax,-0xe8(%rbp)
  103279:	48 8b 85 18 ff ff ff 	mov    -0xe8(%rbp),%rax
  103280:	48 89 c7             	mov    %rax,%rdi
  103283:	e8 f5 e0 ff ff       	callq  10137d <strlen>
  103288:	48 89 85 10 ff ff ff 	mov    %rax,-0xf0(%rbp)
  10328f:	48 8b 85 10 ff ff ff 	mov    -0xf0(%rbp),%rax
  103296:	89 c6                	mov    %eax,%esi
  103298:	48 8b 85 38 ff ff ff 	mov    -0xc8(%rbp),%rax
  10329f:	89 c7                	mov    %eax,%edi
  1032a1:	48 8b 95 88 fe ff ff 	mov    -0x178(%rbp),%rdx
  1032a8:	48 8b 85 18 ff ff ff 	mov    -0xe8(%rbp),%rax
  1032af:	48 89 d1             	mov    %rdx,%rcx
  1032b2:	89 f2                	mov    %esi,%edx
  1032b4:	48 89 c6             	mov    %rax,%rsi
  1032b7:	e8 0f fa ff ff       	callq  102ccb <append_console_entry>
  1032bc:	48 83 85 48 ff ff ff 	addq   $0x1,-0xb8(%rbp)
  1032c3:	01 
  1032c4:	e9 aa 01 00 00       	jmpq   103473 <console_write_fmt+0x6a0>
  1032c9:	48 8b 95 80 fe ff ff 	mov    -0x180(%rbp),%rdx
  1032d0:	48 8b 85 48 ff ff ff 	mov    -0xb8(%rbp),%rax
  1032d7:	48 01 d0             	add    %rdx,%rax
  1032da:	0f b6 00             	movzbl (%rax),%eax
  1032dd:	3c 2e                	cmp    $0x2e,%al
  1032df:	0f 85 8e 01 00 00    	jne    103473 <console_write_fmt+0x6a0>
  1032e5:	48 83 85 48 ff ff ff 	addq   $0x1,-0xb8(%rbp)
  1032ec:	01 
  1032ed:	48 8b 95 80 fe ff ff 	mov    -0x180(%rbp),%rdx
  1032f4:	48 8b 85 48 ff ff ff 	mov    -0xb8(%rbp),%rax
  1032fb:	48 01 d0             	add    %rdx,%rax
  1032fe:	0f b6 00             	movzbl (%rax),%eax
  103301:	3c 2a                	cmp    $0x2a,%al
  103303:	0f 85 6a 01 00 00    	jne    103473 <console_write_fmt+0x6a0>
  103309:	48 83 85 48 ff ff ff 	addq   $0x1,-0xb8(%rbp)
  103310:	01 
  103311:	8b 85 b8 fe ff ff    	mov    -0x148(%rbp),%eax
  103317:	83 f8 2f             	cmp    $0x2f,%eax
  10331a:	77 23                	ja     10333f <console_write_fmt+0x56c>
  10331c:	48 8b 85 c8 fe ff ff 	mov    -0x138(%rbp),%rax
  103323:	8b 95 b8 fe ff ff    	mov    -0x148(%rbp),%edx
  103329:	89 d2                	mov    %edx,%edx
  10332b:	48 01 d0             	add    %rdx,%rax
  10332e:	8b 95 b8 fe ff ff    	mov    -0x148(%rbp),%edx
  103334:	83 c2 08             	add    $0x8,%edx
  103337:	89 95 b8 fe ff ff    	mov    %edx,-0x148(%rbp)
  10333d:	eb 12                	jmp    103351 <console_write_fmt+0x57e>
  10333f:	48 8b 85 c0 fe ff ff 	mov    -0x140(%rbp),%rax
  103346:	48 8d 50 08          	lea    0x8(%rax),%rdx
  10334a:	48 89 95 c0 fe ff ff 	mov    %rdx,-0x140(%rbp)
  103351:	48 8b 00             	mov    (%rax),%rax
  103354:	48 89 85 08 ff ff ff 	mov    %rax,-0xf8(%rbp)
  10335b:	8b 85 b8 fe ff ff    	mov    -0x148(%rbp),%eax
  103361:	83 f8 2f             	cmp    $0x2f,%eax
  103364:	77 23                	ja     103389 <console_write_fmt+0x5b6>
  103366:	48 8b 85 c8 fe ff ff 	mov    -0x138(%rbp),%rax
  10336d:	8b 95 b8 fe ff ff    	mov    -0x148(%rbp),%edx
  103373:	89 d2                	mov    %edx,%edx
  103375:	48 01 d0             	add    %rdx,%rax
  103378:	8b 95 b8 fe ff ff    	mov    -0x148(%rbp),%edx
  10337e:	83 c2 08             	add    $0x8,%edx
  103381:	89 95 b8 fe ff ff    	mov    %edx,-0x148(%rbp)
  103387:	eb 12                	jmp    10339b <console_write_fmt+0x5c8>
  103389:	48 8b 85 c0 fe ff ff 	mov    -0x140(%rbp),%rax
  103390:	48 8d 50 08          	lea    0x8(%rax),%rdx
  103394:	48 89 95 c0 fe ff ff 	mov    %rdx,-0x140(%rbp)
  10339b:	48 8b 00             	mov    (%rax),%rax
  10339e:	48 89 85 00 ff ff ff 	mov    %rax,-0x100(%rbp)
  1033a5:	48 8b 85 08 ff ff ff 	mov    -0xf8(%rbp),%rax
  1033ac:	89 c6                	mov    %eax,%esi
  1033ae:	48 8b 85 38 ff ff ff 	mov    -0xc8(%rbp),%rax
  1033b5:	89 c7                	mov    %eax,%edi
  1033b7:	48 8b 95 88 fe ff ff 	mov    -0x178(%rbp),%rdx
  1033be:	48 8b 85 00 ff ff ff 	mov    -0x100(%rbp),%rax
  1033c5:	48 89 d1             	mov    %rdx,%rcx
  1033c8:	89 f2                	mov    %esi,%edx
  1033ca:	48 89 c6             	mov    %rax,%rsi
  1033cd:	e8 f9 f8 ff ff       	callq  102ccb <append_console_entry>
  1033d2:	48 83 85 48 ff ff ff 	addq   $0x1,-0xb8(%rbp)
  1033d9:	01 
  1033da:	e9 94 00 00 00       	jmpq   103473 <console_write_fmt+0x6a0>
  1033df:	48 8b 85 48 ff ff ff 	mov    -0xb8(%rbp),%rax
  1033e6:	48 89 85 f8 fe ff ff 	mov    %rax,-0x108(%rbp)
  1033ed:	eb 08                	jmp    1033f7 <console_write_fmt+0x624>
  1033ef:	48 83 85 48 ff ff ff 	addq   $0x1,-0xb8(%rbp)
  1033f6:	01 
  1033f7:	48 8b 95 80 fe ff ff 	mov    -0x180(%rbp),%rdx
  1033fe:	48 8b 85 48 ff ff ff 	mov    -0xb8(%rbp),%rax
  103405:	48 01 d0             	add    %rdx,%rax
  103408:	0f b6 00             	movzbl (%rax),%eax
  10340b:	3c 25                	cmp    $0x25,%al
  10340d:	74 18                	je     103427 <console_write_fmt+0x654>
  10340f:	48 8b 95 80 fe ff ff 	mov    -0x180(%rbp),%rdx
  103416:	48 8b 85 48 ff ff ff 	mov    -0xb8(%rbp),%rax
  10341d:	48 01 d0             	add    %rdx,%rax
  103420:	0f b6 00             	movzbl (%rax),%eax
  103423:	84 c0                	test   %al,%al
  103425:	75 c8                	jne    1033ef <console_write_fmt+0x61c>
  103427:	48 8b 85 48 ff ff ff 	mov    -0xb8(%rbp),%rax
  10342e:	48 2b 85 f8 fe ff ff 	sub    -0x108(%rbp),%rax
  103435:	48 89 85 f0 fe ff ff 	mov    %rax,-0x110(%rbp)
  10343c:	48 8b 85 f0 fe ff ff 	mov    -0x110(%rbp),%rax
  103443:	41 89 c0             	mov    %eax,%r8d
  103446:	48 8b 95 80 fe ff ff 	mov    -0x180(%rbp),%rdx
  10344d:	48 8b 85 f8 fe ff ff 	mov    -0x108(%rbp),%rax
  103454:	48 8d 34 02          	lea    (%rdx,%rax,1),%rsi
  103458:	48 8b 85 38 ff ff ff 	mov    -0xc8(%rbp),%rax
  10345f:	89 c7                	mov    %eax,%edi
  103461:	48 8b 85 88 fe ff ff 	mov    -0x178(%rbp),%rax
  103468:	48 89 c1             	mov    %rax,%rcx
  10346b:	44 89 c2             	mov    %r8d,%edx
  10346e:	e8 58 f8 ff ff       	callq  102ccb <append_console_entry>
  103473:	48 8b 95 80 fe ff ff 	mov    -0x180(%rbp),%rdx
  10347a:	48 8b 85 48 ff ff ff 	mov    -0xb8(%rbp),%rax
  103481:	48 01 d0             	add    %rdx,%rax
  103484:	0f b6 00             	movzbl (%rax),%eax
  103487:	84 c0                	test   %al,%al
  103489:	0f 85 f1 fa ff ff    	jne    102f80 <console_write_fmt+0x1ad>
  10348f:	48 8b 85 88 fe ff ff 	mov    -0x178(%rbp),%rax
  103496:	48 8b 95 38 ff ff ff 	mov    -0xc8(%rbp),%rdx
  10349d:	8b 44 90 04          	mov    0x4(%rax,%rdx,4),%eax
  1034a1:	89 c0                	mov    %eax,%eax
  1034a3:	48 89 85 e8 fe ff ff 	mov    %rax,-0x118(%rbp)
  1034aa:	48 8b 85 88 fe ff ff 	mov    -0x178(%rbp),%rax
  1034b1:	48 8b 95 38 ff ff ff 	mov    -0xc8(%rbp),%rdx
  1034b8:	48 81 c2 00 04 00 00 	add    $0x400,%rdx
  1034bf:	8b 44 90 04          	mov    0x4(%rax,%rdx,4),%eax
  1034c3:	89 c0                	mov    %eax,%eax
  1034c5:	48 89 85 e0 fe ff ff 	mov    %rax,-0x120(%rbp)
  1034cc:	48 8b 95 e8 fe ff ff 	mov    -0x118(%rbp),%rdx
  1034d3:	48 8b 85 e0 fe ff ff 	mov    -0x120(%rbp),%rax
  1034da:	48 01 d0             	add    %rdx,%rax
  1034dd:	48 3d 00 40 00 00    	cmp    $0x4000,%rax
  1034e3:	0f 86 8e 00 00 00    	jbe    103577 <console_write_fmt+0x7a4>
  1034e9:	48 8b 95 e8 fe ff ff 	mov    -0x118(%rbp),%rdx
  1034f0:	48 8b 85 e0 fe ff ff 	mov    -0x120(%rbp),%rax
  1034f7:	48 01 d0             	add    %rdx,%rax
  1034fa:	48 2d 00 40 00 00    	sub    $0x4000,%rax
  103500:	48 89 85 d8 fe ff ff 	mov    %rax,-0x128(%rbp)
  103507:	48 8b 85 e0 fe ff ff 	mov    -0x120(%rbp),%rax
  10350e:	48 2b 85 d8 fe ff ff 	sub    -0x128(%rbp),%rax
  103515:	48 89 85 d0 fe ff ff 	mov    %rax,-0x130(%rbp)
  10351c:	48 8b 85 88 fe ff ff 	mov    -0x178(%rbp),%rax
  103523:	48 8d 90 10 21 00 00 	lea    0x2110(%rax),%rdx
  10352a:	48 8b 85 e8 fe ff ff 	mov    -0x118(%rbp),%rax
  103531:	48 01 c2             	add    %rax,%rdx
  103534:	48 8b 85 d0 fe ff ff 	mov    -0x130(%rbp),%rax
  10353b:	48 89 c6             	mov    %rax,%rsi
  10353e:	48 89 d7             	mov    %rdx,%rdi
  103541:	e8 d2 ea ff ff       	callq  102018 <write_serial>
  103546:	48 8b 85 88 fe ff ff 	mov    -0x178(%rbp),%rax
  10354d:	48 8d 90 10 21 00 00 	lea    0x2110(%rax),%rdx
  103554:	48 8b 85 d8 fe ff ff 	mov    -0x128(%rbp),%rax
  10355b:	48 89 c6             	mov    %rax,%rsi
  10355e:	48 89 d7             	mov    %rdx,%rdi
  103561:	e8 b2 ea ff ff       	callq  102018 <write_serial>
  103566:	be 01 00 00 00       	mov    $0x1,%esi
  10356b:	bf bf 43 10 00       	mov    $0x1043bf,%edi
  103570:	e8 a3 ea ff ff       	callq  102018 <write_serial>
  103575:	eb 39                	jmp    1035b0 <console_write_fmt+0x7dd>
  103577:	48 8b 85 88 fe ff ff 	mov    -0x178(%rbp),%rax
  10357e:	48 8d 90 10 21 00 00 	lea    0x2110(%rax),%rdx
  103585:	48 8b 85 e8 fe ff ff 	mov    -0x118(%rbp),%rax
  10358c:	48 01 c2             	add    %rax,%rdx
  10358f:	48 8b 85 e0 fe ff ff 	mov    -0x120(%rbp),%rax
  103596:	48 89 c6             	mov    %rax,%rsi
  103599:	48 89 d7             	mov    %rdx,%rdi
  10359c:	e8 77 ea ff ff       	callq  102018 <write_serial>
  1035a1:	be 01 00 00 00       	mov    $0x1,%esi
  1035a6:	bf bf 43 10 00       	mov    $0x1043bf,%edi
  1035ab:	e8 68 ea ff ff       	callq  102018 <write_serial>
  1035b0:	48 8b 85 88 fe ff ff 	mov    -0x178(%rbp),%rax
  1035b7:	8b 00                	mov    (%rax),%eax
  1035b9:	83 c8 01             	or     $0x1,%eax
  1035bc:	89 c2                	mov    %eax,%edx
  1035be:	48 8b 85 88 fe ff ff 	mov    -0x178(%rbp),%rax
  1035c5:	89 10                	mov    %edx,(%rax)
  1035c7:	eb 01                	jmp    1035ca <console_write_fmt+0x7f7>
  1035c9:	90                   	nop
  1035ca:	c9                   	leaveq 
  1035cb:	c3                   	retq   

00000000001035cc <klog_disable>:
  1035cc:	55                   	push   %rbp
  1035cd:	48 89 e5             	mov    %rsp,%rbp
  1035d0:	c6 05 51 db 00 00 01 	movb   $0x1,0xdb51(%rip)        # 111128 <globals+0x6128>
  1035d7:	90                   	nop
  1035d8:	5d                   	pop    %rbp
  1035d9:	c3                   	retq   

00000000001035da <klog_enable>:
  1035da:	55                   	push   %rbp
  1035db:	48 89 e5             	mov    %rsp,%rbp
  1035de:	c6 05 43 db 00 00 00 	movb   $0x0,0xdb43(%rip)        # 111128 <globals+0x6128>
  1035e5:	90                   	nop
  1035e6:	5d                   	pop    %rbp
  1035e7:	c3                   	retq   

00000000001035e8 <is_command_signature_valid>:
  1035e8:	55                   	push   %rbp
  1035e9:	48 89 e5             	mov    %rsp,%rbp
  1035ec:	48 83 ec 30          	sub    $0x30,%rsp
  1035f0:	48 89 7d f8          	mov    %rdi,-0x8(%rbp)
  1035f4:	48 89 75 f0          	mov    %rsi,-0x10(%rbp)
  1035f8:	48 89 55 e8          	mov    %rdx,-0x18(%rbp)
  1035fc:	48 89 4d e0          	mov    %rcx,-0x20(%rbp)
  103600:	44 89 45 dc          	mov    %r8d,-0x24(%rbp)
  103604:	44 89 4d d8          	mov    %r9d,-0x28(%rbp)
  103608:	48 8b 4d e0          	mov    -0x20(%rbp),%rcx
  10360c:	48 8b 55 e8          	mov    -0x18(%rbp),%rdx
  103610:	48 8b 75 f0          	mov    -0x10(%rbp),%rsi
  103614:	48 8b 45 f8          	mov    -0x8(%rbp),%rax
  103618:	48 89 c7             	mov    %rax,%rdi
  10361b:	e8 90 dd ff ff       	callq  1013b0 <strings_match>
  103620:	85 c0                	test   %eax,%eax
  103622:	74 3c                	je     103660 <is_command_signature_valid+0x78>
  103624:	8b 45 dc             	mov    -0x24(%rbp),%eax
  103627:	3b 45 d8             	cmp    -0x28(%rbp),%eax
  10362a:	74 2d                	je     103659 <is_command_signature_valid+0x71>
  10362c:	8b 4d d8             	mov    -0x28(%rbp),%ecx
  10362f:	8b 55 dc             	mov    -0x24(%rbp),%edx
  103632:	48 8b 45 e8          	mov    -0x18(%rbp),%rax
  103636:	41 89 c8             	mov    %ecx,%r8d
  103639:	89 d1                	mov    %edx,%ecx
  10363b:	48 89 c2             	mov    %rax,%rdx
  10363e:	be c8 43 10 00       	mov    $0x1043c8,%esi
  103643:	bf 00 b0 10 00       	mov    $0x10b000,%edi
  103648:	b8 00 00 00 00       	mov    $0x0,%eax
  10364d:	e8 81 f7 ff ff       	callq  102dd3 <console_write_fmt>
  103652:	b8 02 00 00 00       	mov    $0x2,%eax
  103657:	eb 0c                	jmp    103665 <is_command_signature_valid+0x7d>
  103659:	b8 00 00 00 00       	mov    $0x0,%eax
  10365e:	eb 05                	jmp    103665 <is_command_signature_valid+0x7d>
  103660:	b8 01 00 00 00       	mov    $0x1,%eax
  103665:	c9                   	leaveq 
  103666:	c3                   	retq   

0000000000103667 <redraw_vga_text_terminal_if_dirty>:
  103667:	55                   	push   %rbp
  103668:	48 89 e5             	mov    %rsp,%rbp
  10366b:	48 81 ec d0 00 00 00 	sub    $0xd0,%rsp
  103672:	48 89 bd 38 ff ff ff 	mov    %rdi,-0xc8(%rbp)
  103679:	48 89 b5 30 ff ff ff 	mov    %rsi,-0xd0(%rbp)
  103680:	48 8b 85 30 ff ff ff 	mov    -0xd0(%rbp),%rax
  103687:	8b 00                	mov    (%rax),%eax
  103689:	83 e0 01             	and    $0x1,%eax
  10368c:	85 c0                	test   %eax,%eax
  10368e:	0f 84 44 05 00 00    	je     103bd8 <redraw_vga_text_terminal_if_dirty+0x571>
  103694:	c7 45 fc 00 00 00 00 	movl   $0x0,-0x4(%rbp)
  10369b:	c7 45 b4 00 00 00 00 	movl   $0x0,-0x4c(%rbp)
  1036a2:	48 8b 85 30 ff ff ff 	mov    -0xd0(%rbp),%rax
  1036a9:	8b 80 0c 20 00 00    	mov    0x200c(%rax),%eax
  1036af:	89 45 f8             	mov    %eax,-0x8(%rbp)
  1036b2:	c7 45 f4 00 00 00 00 	movl   $0x0,-0xc(%rbp)
  1036b9:	e9 d4 00 00 00       	jmpq   103792 <redraw_vga_text_terminal_if_dirty+0x12b>
  1036be:	c7 45 f0 00 00 00 00 	movl   $0x0,-0x10(%rbp)
  1036c5:	48 8b 85 30 ff ff ff 	mov    -0xd0(%rbp),%rax
  1036cc:	8b 55 f8             	mov    -0x8(%rbp),%edx
  1036cf:	48 81 c2 00 04 00 00 	add    $0x400,%rdx
  1036d6:	8b 44 90 04          	mov    0x4(%rax,%rdx,4),%eax
  1036da:	89 c0                	mov    %eax,%eax
  1036dc:	48 89 45 e8          	mov    %rax,-0x18(%rbp)
  1036e0:	eb 12                	jmp    1036f4 <redraw_vga_text_terminal_if_dirty+0x8d>
  1036e2:	83 45 f0 01          	addl   $0x1,-0x10(%rbp)
  1036e6:	0f b6 05 cf 0d 00 00 	movzbl 0xdcf(%rip),%eax        # 1044bc <VGA_TEXT_COLUMN_COUNT.2217>
  1036ed:	0f b6 c0             	movzbl %al,%eax
  1036f0:	48 29 45 e8          	sub    %rax,-0x18(%rbp)
  1036f4:	48 83 7d e8 00       	cmpq   $0x0,-0x18(%rbp)
  1036f9:	7f e7                	jg     1036e2 <redraw_vga_text_terminal_if_dirty+0x7b>
  1036fb:	0f b6 05 ba 0d 00 00 	movzbl 0xdba(%rip),%eax        # 1044bc <VGA_TEXT_COLUMN_COUNT.2217>
  103702:	0f b6 c0             	movzbl %al,%eax
  103705:	48 8b 55 e8          	mov    -0x18(%rbp),%rdx
  103709:	01 d0                	add    %edx,%eax
  10370b:	89 45 b0             	mov    %eax,-0x50(%rbp)
  10370e:	8b 55 f0             	mov    -0x10(%rbp),%edx
  103711:	8b 45 b4             	mov    -0x4c(%rbp),%eax
  103714:	01 c2                	add    %eax,%edx
  103716:	0f b6 05 a0 0d 00 00 	movzbl 0xda0(%rip),%eax        # 1044bd <VGA_TEXT_ROW_COUNT.2218>
  10371d:	0f b6 c0             	movzbl %al,%eax
  103720:	39 c2                	cmp    %eax,%edx
  103722:	76 4a                	jbe    10376e <redraw_vga_text_terminal_if_dirty+0x107>
  103724:	0f b6 05 92 0d 00 00 	movzbl 0xd92(%rip),%eax        # 1044bd <VGA_TEXT_ROW_COUNT.2218>
  10372b:	0f b6 c0             	movzbl %al,%eax
  10372e:	2b 45 b4             	sub    -0x4c(%rbp),%eax
  103731:	89 45 ac             	mov    %eax,-0x54(%rbp)
  103734:	48 8b 85 30 ff ff ff 	mov    -0xd0(%rbp),%rax
  10373b:	8b 55 f8             	mov    -0x8(%rbp),%edx
  10373e:	48 81 c2 00 04 00 00 	add    $0x400,%rdx
  103745:	8b 44 90 04          	mov    0x4(%rax,%rdx,4),%eax
  103749:	89 45 f4             	mov    %eax,-0xc(%rbp)
  10374c:	8b 45 b0             	mov    -0x50(%rbp),%eax
  10374f:	29 45 f4             	sub    %eax,-0xc(%rbp)
  103752:	8b 45 ac             	mov    -0x54(%rbp),%eax
  103755:	8d 50 ff             	lea    -0x1(%rax),%edx
  103758:	0f b6 05 5d 0d 00 00 	movzbl 0xd5d(%rip),%eax        # 1044bc <VGA_TEXT_COLUMN_COUNT.2217>
  10375f:	0f b6 c0             	movzbl %al,%eax
  103762:	0f af c2             	imul   %edx,%eax
  103765:	29 45 f4             	sub    %eax,-0xc(%rbp)
  103768:	83 45 fc 01          	addl   $0x1,-0x4(%rbp)
  10376c:	eb 3a                	jmp    1037a8 <redraw_vga_text_terminal_if_dirty+0x141>
  10376e:	83 45 fc 01          	addl   $0x1,-0x4(%rbp)
  103772:	48 8b 85 30 ff ff ff 	mov    -0xd0(%rbp),%rax
  103779:	8b 80 04 20 00 00    	mov    0x2004(%rax),%eax
  10377f:	3b 45 fc             	cmp    -0x4(%rbp),%eax
  103782:	76 23                	jbe    1037a7 <redraw_vga_text_terminal_if_dirty+0x140>
  103784:	8b 45 f8             	mov    -0x8(%rbp),%eax
  103787:	83 e8 01             	sub    $0x1,%eax
  10378a:	25 ff 03 00 00       	and    $0x3ff,%eax
  10378f:	89 45 f8             	mov    %eax,-0x8(%rbp)
  103792:	0f b6 05 24 0d 00 00 	movzbl 0xd24(%rip),%eax        # 1044bd <VGA_TEXT_ROW_COUNT.2218>
  103799:	0f b6 c0             	movzbl %al,%eax
  10379c:	3b 45 b4             	cmp    -0x4c(%rbp),%eax
  10379f:	0f 87 19 ff ff ff    	ja     1036be <redraw_vga_text_terminal_if_dirty+0x57>
  1037a5:	eb 01                	jmp    1037a8 <redraw_vga_text_terminal_if_dirty+0x141>
  1037a7:	90                   	nop
  1037a8:	c6 45 ab 02          	movb   $0x2,-0x55(%rbp)
  1037ac:	c6 45 e7 00          	movb   $0x0,-0x19(%rbp)
  1037b0:	c6 45 e6 00          	movb   $0x0,-0x1a(%rbp)
  1037b4:	0f b6 05 01 0d 00 00 	movzbl 0xd01(%rip),%eax        # 1044bc <VGA_TEXT_COLUMN_COUNT.2217>
  1037bb:	0f b6 d0             	movzbl %al,%edx
  1037be:	0f b6 05 f8 0c 00 00 	movzbl 0xcf8(%rip),%eax        # 1044bd <VGA_TEXT_ROW_COUNT.2218>
  1037c5:	0f b6 c0             	movzbl %al,%eax
  1037c8:	0f af c2             	imul   %edx,%eax
  1037cb:	01 c0                	add    %eax,%eax
  1037cd:	48 63 d0             	movslq %eax,%rdx
  1037d0:	48 8b 05 a9 04 00 00 	mov    0x4a9(%rip),%rax        # 103c80 <VGA_TEXT_BUFFER.2219>
  1037d7:	be 00 00 00 00       	mov    $0x0,%esi
  1037dc:	48 89 c7             	mov    %rax,%rdi
  1037df:	e8 0c db ff ff       	callq  1012f0 <__memset>
  1037e4:	48 8b 85 30 ff ff ff 	mov    -0xd0(%rbp),%rax
  1037eb:	8b 55 f8             	mov    -0x8(%rbp),%edx
  1037ee:	8b 54 90 04          	mov    0x4(%rax,%rdx,4),%edx
  1037f2:	8b 45 f4             	mov    -0xc(%rbp),%eax
  1037f5:	01 d0                	add    %edx,%eax
  1037f7:	89 c0                	mov    %eax,%eax
  1037f9:	48 89 45 a0          	mov    %rax,-0x60(%rbp)
  1037fd:	48 8b 85 30 ff ff ff 	mov    -0xd0(%rbp),%rax
  103804:	8b 55 f8             	mov    -0x8(%rbp),%edx
  103807:	48 81 c2 00 04 00 00 	add    $0x400,%rdx
  10380e:	8b 44 90 04          	mov    0x4(%rax,%rdx,4),%eax
  103812:	2b 45 f4             	sub    -0xc(%rbp),%eax
  103815:	89 c0                	mov    %eax,%eax
  103817:	48 89 45 98          	mov    %rax,-0x68(%rbp)
  10381b:	48 c7 45 d8 00 00 00 	movq   $0x0,-0x28(%rbp)
  103822:	00 
  103823:	e9 8f 00 00 00       	jmpq   1038b7 <redraw_vga_text_terminal_if_dirty+0x250>
  103828:	0f b6 55 e7          	movzbl -0x19(%rbp),%edx
  10382c:	0f b6 05 89 0c 00 00 	movzbl 0xc89(%rip),%eax        # 1044bc <VGA_TEXT_COLUMN_COUNT.2217>
  103833:	0f b6 c0             	movzbl %al,%eax
  103836:	0f af d0             	imul   %eax,%edx
  103839:	0f b6 45 e6          	movzbl -0x1a(%rbp),%eax
  10383d:	01 d0                	add    %edx,%eax
  10383f:	01 c0                	add    %eax,%eax
  103841:	48 98                	cltq   
  103843:	48 89 45 90          	mov    %rax,-0x70(%rbp)
  103847:	48 8b 15 32 04 00 00 	mov    0x432(%rip),%rdx        # 103c80 <VGA_TEXT_BUFFER.2219>
  10384e:	48 8b 45 90          	mov    -0x70(%rbp),%rax
  103852:	48 01 d0             	add    %rdx,%rax
  103855:	48 8b 95 30 ff ff ff 	mov    -0xd0(%rbp),%rdx
  10385c:	48 8d b2 10 21 00 00 	lea    0x2110(%rdx),%rsi
  103863:	48 8b 4d a0          	mov    -0x60(%rbp),%rcx
  103867:	48 8b 55 d8          	mov    -0x28(%rbp),%rdx
  10386b:	48 01 ca             	add    %rcx,%rdx
  10386e:	48 01 f2             	add    %rsi,%rdx
  103871:	0f b6 12             	movzbl (%rdx),%edx
  103874:	88 10                	mov    %dl,(%rax)
  103876:	48 8b 05 03 04 00 00 	mov    0x403(%rip),%rax        # 103c80 <VGA_TEXT_BUFFER.2219>
  10387d:	48 8b 55 90          	mov    -0x70(%rbp),%rdx
  103881:	48 83 c2 01          	add    $0x1,%rdx
  103885:	48 01 c2             	add    %rax,%rdx
  103888:	0f b6 45 ab          	movzbl -0x55(%rbp),%eax
  10388c:	88 02                	mov    %al,(%rdx)
  10388e:	0f b6 45 e6          	movzbl -0x1a(%rbp),%eax
  103892:	83 c0 01             	add    $0x1,%eax
  103895:	88 45 e6             	mov    %al,-0x1a(%rbp)
  103898:	0f b6 05 1d 0c 00 00 	movzbl 0xc1d(%rip),%eax        # 1044bc <VGA_TEXT_COLUMN_COUNT.2217>
  10389f:	38 45 e6             	cmp    %al,-0x1a(%rbp)
  1038a2:	76 0e                	jbe    1038b2 <redraw_vga_text_terminal_if_dirty+0x24b>
  1038a4:	c6 45 e6 00          	movb   $0x0,-0x1a(%rbp)
  1038a8:	0f b6 45 e7          	movzbl -0x19(%rbp),%eax
  1038ac:	83 c0 01             	add    $0x1,%eax
  1038af:	88 45 e7             	mov    %al,-0x19(%rbp)
  1038b2:	48 83 45 d8 01       	addq   $0x1,-0x28(%rbp)
  1038b7:	48 8b 45 d8          	mov    -0x28(%rbp),%rax
  1038bb:	48 3b 45 98          	cmp    -0x68(%rbp),%rax
  1038bf:	0f 82 63 ff ff ff    	jb     103828 <redraw_vga_text_terminal_if_dirty+0x1c1>
  1038c5:	0f b6 45 e7          	movzbl -0x19(%rbp),%eax
  1038c9:	83 c0 01             	add    $0x1,%eax
  1038cc:	88 45 e7             	mov    %al,-0x19(%rbp)
  1038cf:	c6 45 e6 00          	movb   $0x0,-0x1a(%rbp)
  1038d3:	48 c7 45 d0 01 00 00 	movq   $0x1,-0x30(%rbp)
  1038da:	00 
  1038db:	e9 d2 02 00 00       	jmpq   103bb2 <redraw_vga_text_terminal_if_dirty+0x54b>
  1038e0:	8b 55 f8             	mov    -0x8(%rbp),%edx
  1038e3:	48 8b 45 d0          	mov    -0x30(%rbp),%rax
  1038e7:	48 01 d0             	add    %rdx,%rax
  1038ea:	25 ff 03 00 00       	and    $0x3ff,%eax
  1038ef:	48 89 45 88          	mov    %rax,-0x78(%rbp)
  1038f3:	48 8b 85 30 ff ff ff 	mov    -0xd0(%rbp),%rax
  1038fa:	48 8b 55 88          	mov    -0x78(%rbp),%rdx
  1038fe:	8b 44 90 04          	mov    0x4(%rax,%rdx,4),%eax
  103902:	89 c0                	mov    %eax,%eax
  103904:	48 89 45 80          	mov    %rax,-0x80(%rbp)
  103908:	48 8b 85 30 ff ff ff 	mov    -0xd0(%rbp),%rax
  10390f:	48 8b 55 88          	mov    -0x78(%rbp),%rdx
  103913:	48 81 c2 00 04 00 00 	add    $0x400,%rdx
  10391a:	8b 44 90 04          	mov    0x4(%rax,%rdx,4),%eax
  10391e:	89 c0                	mov    %eax,%eax
  103920:	48 89 85 78 ff ff ff 	mov    %rax,-0x88(%rbp)
  103927:	48 8b 55 80          	mov    -0x80(%rbp),%rdx
  10392b:	48 8b 85 78 ff ff ff 	mov    -0x88(%rbp),%rax
  103932:	48 01 d0             	add    %rdx,%rax
  103935:	48 89 85 70 ff ff ff 	mov    %rax,-0x90(%rbp)
  10393c:	48 8b 55 80          	mov    -0x80(%rbp),%rdx
  103940:	48 8b 85 78 ff ff ff 	mov    -0x88(%rbp),%rax
  103947:	48 01 d0             	add    %rdx,%rax
  10394a:	48 3d 00 40 00 00    	cmp    $0x4000,%rax
  103950:	0f 86 93 01 00 00    	jbe    103ae9 <redraw_vga_text_terminal_if_dirty+0x482>
  103956:	48 8b 85 70 ff ff ff 	mov    -0x90(%rbp),%rax
  10395d:	48 2d 00 40 00 00    	sub    $0x4000,%rax
  103963:	48 89 85 68 ff ff ff 	mov    %rax,-0x98(%rbp)
  10396a:	48 8b 85 78 ff ff ff 	mov    -0x88(%rbp),%rax
  103971:	48 2b 85 68 ff ff ff 	sub    -0x98(%rbp),%rax
  103978:	48 89 85 60 ff ff ff 	mov    %rax,-0xa0(%rbp)
  10397f:	48 c7 45 c8 00 00 00 	movq   $0x0,-0x38(%rbp)
  103986:	00 
  103987:	e9 98 00 00 00       	jmpq   103a24 <redraw_vga_text_terminal_if_dirty+0x3bd>
  10398c:	0f b6 55 e7          	movzbl -0x19(%rbp),%edx
  103990:	0f b6 05 25 0b 00 00 	movzbl 0xb25(%rip),%eax        # 1044bc <VGA_TEXT_COLUMN_COUNT.2217>
  103997:	0f b6 c0             	movzbl %al,%eax
  10399a:	0f af d0             	imul   %eax,%edx
  10399d:	0f b6 45 e6          	movzbl -0x1a(%rbp),%eax
  1039a1:	01 d0                	add    %edx,%eax
  1039a3:	01 c0                	add    %eax,%eax
  1039a5:	48 98                	cltq   
  1039a7:	48 89 85 58 ff ff ff 	mov    %rax,-0xa8(%rbp)
  1039ae:	48 8b 15 cb 02 00 00 	mov    0x2cb(%rip),%rdx        # 103c80 <VGA_TEXT_BUFFER.2219>
  1039b5:	48 8b 85 58 ff ff ff 	mov    -0xa8(%rbp),%rax
  1039bc:	48 01 d0             	add    %rdx,%rax
  1039bf:	48 8b 95 30 ff ff ff 	mov    -0xd0(%rbp),%rdx
  1039c6:	48 8d b2 10 21 00 00 	lea    0x2110(%rdx),%rsi
  1039cd:	48 8b 4d 80          	mov    -0x80(%rbp),%rcx
  1039d1:	48 8b 55 c8          	mov    -0x38(%rbp),%rdx
  1039d5:	48 01 ca             	add    %rcx,%rdx
  1039d8:	48 01 f2             	add    %rsi,%rdx
  1039db:	0f b6 12             	movzbl (%rdx),%edx
  1039de:	88 10                	mov    %dl,(%rax)
  1039e0:	48 8b 05 99 02 00 00 	mov    0x299(%rip),%rax        # 103c80 <VGA_TEXT_BUFFER.2219>
  1039e7:	48 8b 95 58 ff ff ff 	mov    -0xa8(%rbp),%rdx
  1039ee:	48 83 c2 01          	add    $0x1,%rdx
  1039f2:	48 01 c2             	add    %rax,%rdx
  1039f5:	0f b6 45 ab          	movzbl -0x55(%rbp),%eax
  1039f9:	88 02                	mov    %al,(%rdx)
  1039fb:	0f b6 45 e6          	movzbl -0x1a(%rbp),%eax
  1039ff:	83 c0 01             	add    $0x1,%eax
  103a02:	88 45 e6             	mov    %al,-0x1a(%rbp)
  103a05:	0f b6 05 b0 0a 00 00 	movzbl 0xab0(%rip),%eax        # 1044bc <VGA_TEXT_COLUMN_COUNT.2217>
  103a0c:	38 45 e6             	cmp    %al,-0x1a(%rbp)
  103a0f:	76 0e                	jbe    103a1f <redraw_vga_text_terminal_if_dirty+0x3b8>
  103a11:	c6 45 e6 00          	movb   $0x0,-0x1a(%rbp)
  103a15:	0f b6 45 e7          	movzbl -0x19(%rbp),%eax
  103a19:	83 c0 01             	add    $0x1,%eax
  103a1c:	88 45 e7             	mov    %al,-0x19(%rbp)
  103a1f:	48 83 45 c8 01       	addq   $0x1,-0x38(%rbp)
  103a24:	48 8b 45 c8          	mov    -0x38(%rbp),%rax
  103a28:	48 3b 85 60 ff ff ff 	cmp    -0xa0(%rbp),%rax
  103a2f:	0f 82 57 ff ff ff    	jb     10398c <redraw_vga_text_terminal_if_dirty+0x325>
  103a35:	48 c7 45 c0 00 00 00 	movq   $0x0,-0x40(%rbp)
  103a3c:	00 
  103a3d:	e9 91 00 00 00       	jmpq   103ad3 <redraw_vga_text_terminal_if_dirty+0x46c>
  103a42:	0f b6 55 e7          	movzbl -0x19(%rbp),%edx
  103a46:	0f b6 05 6f 0a 00 00 	movzbl 0xa6f(%rip),%eax        # 1044bc <VGA_TEXT_COLUMN_COUNT.2217>
  103a4d:	0f b6 c0             	movzbl %al,%eax
  103a50:	0f af d0             	imul   %eax,%edx
  103a53:	0f b6 45 e6          	movzbl -0x1a(%rbp),%eax
  103a57:	01 d0                	add    %edx,%eax
  103a59:	01 c0                	add    %eax,%eax
  103a5b:	48 98                	cltq   
  103a5d:	48 89 85 50 ff ff ff 	mov    %rax,-0xb0(%rbp)
  103a64:	48 8b 15 15 02 00 00 	mov    0x215(%rip),%rdx        # 103c80 <VGA_TEXT_BUFFER.2219>
  103a6b:	48 8b 85 50 ff ff ff 	mov    -0xb0(%rbp),%rax
  103a72:	48 01 d0             	add    %rdx,%rax
  103a75:	48 8b 8d 30 ff ff ff 	mov    -0xd0(%rbp),%rcx
  103a7c:	48 8b 55 c0          	mov    -0x40(%rbp),%rdx
  103a80:	48 01 ca             	add    %rcx,%rdx
  103a83:	48 81 c2 10 21 00 00 	add    $0x2110,%rdx
  103a8a:	0f b6 12             	movzbl (%rdx),%edx
  103a8d:	88 10                	mov    %dl,(%rax)
  103a8f:	48 8b 05 ea 01 00 00 	mov    0x1ea(%rip),%rax        # 103c80 <VGA_TEXT_BUFFER.2219>
  103a96:	48 8b 95 50 ff ff ff 	mov    -0xb0(%rbp),%rdx
  103a9d:	48 83 c2 01          	add    $0x1,%rdx
  103aa1:	48 01 c2             	add    %rax,%rdx
  103aa4:	0f b6 45 ab          	movzbl -0x55(%rbp),%eax
  103aa8:	88 02                	mov    %al,(%rdx)
  103aaa:	0f b6 45 e6          	movzbl -0x1a(%rbp),%eax
  103aae:	83 c0 01             	add    $0x1,%eax
  103ab1:	88 45 e6             	mov    %al,-0x1a(%rbp)
  103ab4:	0f b6 05 01 0a 00 00 	movzbl 0xa01(%rip),%eax        # 1044bc <VGA_TEXT_COLUMN_COUNT.2217>
  103abb:	38 45 e6             	cmp    %al,-0x1a(%rbp)
  103abe:	76 0e                	jbe    103ace <redraw_vga_text_terminal_if_dirty+0x467>
  103ac0:	c6 45 e6 00          	movb   $0x0,-0x1a(%rbp)
  103ac4:	0f b6 45 e7          	movzbl -0x19(%rbp),%eax
  103ac8:	83 c0 01             	add    $0x1,%eax
  103acb:	88 45 e7             	mov    %al,-0x19(%rbp)
  103ace:	48 83 45 c0 01       	addq   $0x1,-0x40(%rbp)
  103ad3:	48 8b 45 c0          	mov    -0x40(%rbp),%rax
  103ad7:	48 3b 85 68 ff ff ff 	cmp    -0x98(%rbp),%rax
  103ade:	0f 82 5e ff ff ff    	jb     103a42 <redraw_vga_text_terminal_if_dirty+0x3db>
  103ae4:	e9 b6 00 00 00       	jmpq   103b9f <redraw_vga_text_terminal_if_dirty+0x538>
  103ae9:	48 c7 45 b8 00 00 00 	movq   $0x0,-0x48(%rbp)
  103af0:	00 
  103af1:	e9 98 00 00 00       	jmpq   103b8e <redraw_vga_text_terminal_if_dirty+0x527>
  103af6:	0f b6 55 e7          	movzbl -0x19(%rbp),%edx
  103afa:	0f b6 05 bb 09 00 00 	movzbl 0x9bb(%rip),%eax        # 1044bc <VGA_TEXT_COLUMN_COUNT.2217>
  103b01:	0f b6 c0             	movzbl %al,%eax
  103b04:	0f af d0             	imul   %eax,%edx
  103b07:	0f b6 45 e6          	movzbl -0x1a(%rbp),%eax
  103b0b:	01 d0                	add    %edx,%eax
  103b0d:	01 c0                	add    %eax,%eax
  103b0f:	48 98                	cltq   
  103b11:	48 89 85 48 ff ff ff 	mov    %rax,-0xb8(%rbp)
  103b18:	48 8b 15 61 01 00 00 	mov    0x161(%rip),%rdx        # 103c80 <VGA_TEXT_BUFFER.2219>
  103b1f:	48 8b 85 48 ff ff ff 	mov    -0xb8(%rbp),%rax
  103b26:	48 01 d0             	add    %rdx,%rax
  103b29:	48 8b 95 30 ff ff ff 	mov    -0xd0(%rbp),%rdx
  103b30:	48 8d b2 10 21 00 00 	lea    0x2110(%rdx),%rsi
  103b37:	48 8b 4d 80          	mov    -0x80(%rbp),%rcx
  103b3b:	48 8b 55 b8          	mov    -0x48(%rbp),%rdx
  103b3f:	48 01 ca             	add    %rcx,%rdx
  103b42:	48 01 f2             	add    %rsi,%rdx
  103b45:	0f b6 12             	movzbl (%rdx),%edx
  103b48:	88 10                	mov    %dl,(%rax)
  103b4a:	48 8b 05 2f 01 00 00 	mov    0x12f(%rip),%rax        # 103c80 <VGA_TEXT_BUFFER.2219>
  103b51:	48 8b 95 48 ff ff ff 	mov    -0xb8(%rbp),%rdx
  103b58:	48 83 c2 01          	add    $0x1,%rdx
  103b5c:	48 01 c2             	add    %rax,%rdx
  103b5f:	0f b6 45 ab          	movzbl -0x55(%rbp),%eax
  103b63:	88 02                	mov    %al,(%rdx)
  103b65:	0f b6 45 e6          	movzbl -0x1a(%rbp),%eax
  103b69:	83 c0 01             	add    $0x1,%eax
  103b6c:	88 45 e6             	mov    %al,-0x1a(%rbp)
  103b6f:	0f b6 05 46 09 00 00 	movzbl 0x946(%rip),%eax        # 1044bc <VGA_TEXT_COLUMN_COUNT.2217>
  103b76:	38 45 e6             	cmp    %al,-0x1a(%rbp)
  103b79:	76 0e                	jbe    103b89 <redraw_vga_text_terminal_if_dirty+0x522>
  103b7b:	c6 45 e6 00          	movb   $0x0,-0x1a(%rbp)
  103b7f:	0f b6 45 e7          	movzbl -0x19(%rbp),%eax
  103b83:	83 c0 01             	add    $0x1,%eax
  103b86:	88 45 e7             	mov    %al,-0x19(%rbp)
  103b89:	48 83 45 b8 01       	addq   $0x1,-0x48(%rbp)
  103b8e:	48 8b 45 b8          	mov    -0x48(%rbp),%rax
  103b92:	48 3b 85 78 ff ff ff 	cmp    -0x88(%rbp),%rax
  103b99:	0f 82 57 ff ff ff    	jb     103af6 <redraw_vga_text_terminal_if_dirty+0x48f>
  103b9f:	0f b6 45 e7          	movzbl -0x19(%rbp),%eax
  103ba3:	83 c0 01             	add    $0x1,%eax
  103ba6:	88 45 e7             	mov    %al,-0x19(%rbp)
  103ba9:	c6 45 e6 00          	movb   $0x0,-0x1a(%rbp)
  103bad:	48 83 45 d0 01       	addq   $0x1,-0x30(%rbp)
  103bb2:	8b 45 fc             	mov    -0x4(%rbp),%eax
  103bb5:	48 3b 45 d0          	cmp    -0x30(%rbp),%rax
  103bb9:	0f 87 21 fd ff ff    	ja     1038e0 <redraw_vga_text_terminal_if_dirty+0x279>
  103bbf:	48 8b 85 30 ff ff ff 	mov    -0xd0(%rbp),%rax
  103bc6:	8b 00                	mov    (%rax),%eax
  103bc8:	83 e0 fe             	and    $0xfffffffe,%eax
  103bcb:	89 c2                	mov    %eax,%edx
  103bcd:	48 8b 85 30 ff ff ff 	mov    -0xd0(%rbp),%rax
  103bd4:	89 10                	mov    %edx,(%rax)
  103bd6:	eb 01                	jmp    103bd9 <redraw_vga_text_terminal_if_dirty+0x572>
  103bd8:	90                   	nop
  103bd9:	c9                   	leaveq 
  103bda:	c3                   	retq   
