
bin/kernel:     file format elf64-x86-64


Disassembly of section .text:

0000000000101000 <start>:
  101000:	fa                   	cli    
  101001:	bc 00 70 10 00       	mov    $0x107000,%esp
  101006:	89 df                	mov    %ebx,%edi
  101008:	e8 22 01 00 00       	callq  10112f <is_multiboot2_bootloader>
  10100d:	e8 29 01 00 00       	callq  10113b <is_cpuid_supported>
  101012:	e8 3c 01 00 00       	callq  101153 <is_longmode_supported>
  101017:	e8 1c 00 00 00       	callq  101038 <fill_temporary_paging_tables>
  10101c:	0f 01 15 38 1a 10 00 	lgdt   0x101a38(%rip)        # 202a5b <kernel_end+0xf9b53>
  101023:	66 b8 10 00          	mov    $0x10,%ax
  101027:	8e d8                	mov    %eax,%ds
  101029:	8e c0                	mov    %eax,%es
  10102b:	8e e0                	mov    %eax,%fs
  10102d:	8e e8                	mov    %eax,%gs
  10102f:	8e d0                	mov    %eax,%ss
  101031:	ea                   	(bad)  
  101032:	2e 13 10             	adc    %cs:(%rax),%edx
  101035:	00 08                	add    %cl,(%rax)
	...

0000000000101038 <fill_temporary_paging_tables>:
  101038:	b8 08 8f 10 00       	mov    $0x108f08,%eax
  10103d:	05 ff 0f 00 00       	add    $0xfff,%eax
  101042:	25 00 f0 ff ff       	and    $0xfffff000,%eax
  101047:	0f 22 d8             	mov    %rax,%cr3
  10104a:	89 c7                	mov    %eax,%edi
  10104c:	31 c0                	xor    %eax,%eax
  10104e:	b9 00 10 00 00       	mov    $0x1000,%ecx
  101053:	f3 ab                	rep stos %eax,%es:(%rdi)
  101055:	0f 20 df             	mov    %cr3,%rdi
  101058:	89 f8                	mov    %edi,%eax
  10105a:	05 00 10 00 00       	add    $0x1000,%eax
  10105f:	83 c8 03             	or     $0x3,%eax
  101062:	89 07                	mov    %eax,(%rdi)
  101064:	81 c7 00 10 00 00    	add    $0x1000,%edi
  10106a:	89 f8                	mov    %edi,%eax
  10106c:	05 00 10 00 00       	add    $0x1000,%eax
  101071:	83 c8 03             	or     $0x3,%eax
  101074:	89 07                	mov    %eax,(%rdi)
  101076:	81 c7 00 10 00 00    	add    $0x1000,%edi
  10107c:	89 f8                	mov    %edi,%eax
  10107e:	05 00 10 00 00       	add    $0x1000,%eax
  101083:	83 c8 03             	or     $0x3,%eax
  101086:	89 07                	mov    %eax,(%rdi)
  101088:	81 c7 00 10 00 00    	add    $0x1000,%edi
  10108e:	bb 03 00 00 00       	mov    $0x3,%ebx
  101093:	b9 00 02 00 00       	mov    $0x200,%ecx

0000000000101098 <fill_temporary_paging_tables.set_page_entry>:
  101098:	89 1f                	mov    %ebx,(%rdi)
  10109a:	81 c3 00 10 00 00    	add    $0x1000,%ebx
  1010a0:	83 c7 08             	add    $0x8,%edi
  1010a3:	e2 f3                	loop   101098 <fill_temporary_paging_tables.set_page_entry>
  1010a5:	0f 20 e0             	mov    %cr4,%rax
  1010a8:	83 c8 20             	or     $0x20,%eax
  1010ab:	0f 22 e0             	mov    %rax,%cr4
  1010ae:	b9 80 00 00 c0       	mov    $0xc0000080,%ecx
  1010b3:	0f 32                	rdmsr  
  1010b5:	0d 00 01 00 00       	or     $0x100,%eax
  1010ba:	0f 30                	wrmsr  
  1010bc:	0f 20 c0             	mov    %cr0,%rax
  1010bf:	0d 00 00 00 80       	or     $0x80000000,%eax
  1010c4:	0f 22 c0             	mov    %rax,%cr0
  1010c7:	c3                   	retq   

00000000001010c8 <setup_paging_tables>:
  1010c8:	b8 00 30 10 00       	mov    $0x103000,%eax
  1010cd:	83 c8 03             	or     $0x3,%eax
  1010d0:	a3 00 20 10 00 b8 00 	movabs %eax,0x104000b800102000
  1010d7:	40 10 
  1010d9:	00 83 c8 03 a3 00    	add    %al,0xa303c8(%rbx)
  1010df:	30 10                	xor    %dl,(%rax)
  1010e1:	00 b9 00 00 00 00    	add    %bh,0x0(%rcx)

00000000001010e7 <setup_paging_tables.fill_p2_table>:
  1010e7:	b8 00 00 20 00       	mov    $0x200000,%eax
  1010ec:	f7 e1                	mul    %ecx
  1010ee:	0d 83 00 00 00       	or     $0x83,%eax
  1010f3:	89 04 cd 00 40 10 00 	mov    %eax,0x104000(,%rcx,8)
  1010fa:	41 81 f9 00 02 00 00 	cmp    $0x200,%r9d
  101101:	75 e4                	jne    1010e7 <setup_paging_tables.fill_p2_table>
  101103:	c3                   	retq   

0000000000101104 <enable_paging>:
  101104:	b8 00 20 10 00       	mov    $0x102000,%eax
  101109:	0f 22 d8             	mov    %rax,%cr3
  10110c:	0f 20 e0             	mov    %cr4,%rax
  10110f:	83 c8 20             	or     $0x20,%eax
  101112:	0f 22 e0             	mov    %rax,%cr4
  101115:	b9 80 00 00 c0       	mov    $0xc0000080,%ecx
  10111a:	0f 32                	rdmsr  
  10111c:	0d 00 01 00 00       	or     $0x100,%eax
  101121:	0f 30                	wrmsr  
  101123:	0f 20 c0             	mov    %cr0,%rax
  101126:	0d 00 00 00 80       	or     $0x80000000,%eax
  10112b:	0f 22 c0             	mov    %rax,%cr0
  10112e:	c3                   	retq   

000000000010112f <is_multiboot2_bootloader>:
  10112f:	3d 89 62 d7 36       	cmp    $0x36d76289,%eax
  101134:	75 01                	jne    101137 <is_multiboot2_bootloader.no_multiboot>
  101136:	c3                   	retq   

0000000000101137 <is_multiboot2_bootloader.no_multiboot>:
  101137:	b0 30                	mov    $0x30,%al
  101139:	eb 3a                	jmp    101175 <error_handler>

000000000010113b <is_cpuid_supported>:
  10113b:	9c                   	pushfq 
  10113c:	58                   	pop    %rax
  10113d:	89 c1                	mov    %eax,%ecx
  10113f:	35 00 00 20 00       	xor    $0x200000,%eax
  101144:	50                   	push   %rax
  101145:	9d                   	popfq  
  101146:	9c                   	pushfq 
  101147:	58                   	pop    %rax
  101148:	51                   	push   %rcx
  101149:	9d                   	popfq  
  10114a:	31 c8                	xor    %ecx,%eax
  10114c:	74 01                	je     10114f <is_cpuid_supported.no_cpuid>
  10114e:	c3                   	retq   

000000000010114f <is_cpuid_supported.no_cpuid>:
  10114f:	b0 37                	mov    $0x37,%al
  101151:	eb 22                	jmp    101175 <error_handler>

0000000000101153 <is_longmode_supported>:
  101153:	b8 00 00 00 80       	mov    $0x80000000,%eax
  101158:	0f a2                	cpuid  
  10115a:	3d 01 00 00 80       	cmp    $0x80000001,%eax
  10115f:	72 10                	jb     101171 <is_longmode_supported.no_longmode>
  101161:	b8 01 00 00 80       	mov    $0x80000001,%eax
  101166:	0f a2                	cpuid  
  101168:	f7 c2 00 00 00 20    	test   $0x20000000,%edx
  10116e:	74 01                	je     101171 <is_longmode_supported.no_longmode>
  101170:	c3                   	retq   

0000000000101171 <is_longmode_supported.no_longmode>:
  101171:	b0 32                	mov    $0x32,%al
  101173:	eb 00                	jmp    101175 <error_handler>

0000000000101175 <error_handler>:
  101175:	c7 05 00 80 0b 00 45 	movl   $0x4f524f45,0xb8000(%rip)        # 1b917f <kernel_end+0xb0277>
  10117c:	4f 52 4f 
  10117f:	c7 05 04 80 0b 00 52 	movl   $0x4f3a4f52,0xb8004(%rip)        # 1b918d <kernel_end+0xb0285>
  101186:	4f 3a 4f 
  101189:	c7 05 08 80 0b 00 20 	movl   $0x4f204f20,0xb8008(%rip)        # 1b919b <kernel_end+0xb0293>
  101190:	4f 20 4f 
  101193:	a2 0a 80 0b 00 f4 0f 	movabs %al,0x801f0ff4000b800a
  10119a:	1f 80 
  10119c:	00 00                	add    %al,(%rax)
	...

00000000001011a0 <read_port>:
  1011a0:	67 8b 54 24 04       	mov    0x4(%esp),%edx
  1011a5:	ec                   	in     (%dx),%al
  1011a6:	c3                   	retq   

00000000001011a7 <write_port>:
  1011a7:	67 8b 54 24 04       	mov    0x4(%esp),%edx
  1011ac:	67 8a 44 24 08       	mov    0x8(%esp),%al
  1011b1:	ee                   	out    %al,(%dx)
  1011b2:	c3                   	retq   

00000000001011b3 <asm_double_fault_handler>:
  1011b3:	fa                   	cli    
  1011b4:	c7 04 25 00 80 0b 00 	movl   $0x2064,0xb8000
  1011bb:	64 20 00 00 
  1011bf:	c7 04 25 04 80 0b 00 	movl   $0x2066,0xb8004
  1011c6:	66 20 00 00 
  1011ca:	c7 04 25 08 80 0b 00 	movl   $0x206c,0xb8008
  1011d1:	6c 20 00 00 
  1011d5:	f4                   	hlt    
  1011d6:	48 cf                	iretq  

00000000001011d8 <asm_debug_handler>:
  1011d8:	fa                   	cli    
  1011d9:	c7 04 25 00 80 0b 00 	movl   $0x61,0xb8000
  1011e0:	61 00 00 00 
  1011e4:	c7 04 25 04 80 0b 00 	movl   $0x62,0xb8004
  1011eb:	62 00 00 00 
  1011ef:	c7 04 25 08 80 0b 00 	movl   $0x63,0xb8008
  1011f6:	63 00 00 00 
  1011fa:	f4                   	hlt    
  1011fb:	48 cf                	iretq  

00000000001011fd <asm_irq_common_handler>:
  1011fd:	50                   	push   %rax
  1011fe:	53                   	push   %rbx
  1011ff:	51                   	push   %rcx
  101200:	e8 6d 07 00 00       	callq  101972 <irq_common_handler>
  101205:	59                   	pop    %rcx
  101206:	5b                   	pop    %rbx
  101207:	58                   	pop    %rax
  101208:	83 c4 08             	add    $0x8,%esp
  10120b:	fb                   	sti    
  10120c:	48 cf                	iretq  

000000000010120e <asm_isr_common_handler>:
  10120e:	50                   	push   %rax
  10120f:	53                   	push   %rbx
  101210:	51                   	push   %rcx
  101211:	e8 2f 07 00 00       	callq  101945 <isr_common_handler>
  101216:	59                   	pop    %rcx
  101217:	5b                   	pop    %rbx
  101218:	58                   	pop    %rax
  101219:	83 c4 10             	add    $0x10,%esp
  10121c:	fb                   	sti    
  10121d:	48 cf                	iretq  

000000000010121f <asm_isr0>:
  10121f:	fa                   	cli    
  101220:	6a 00                	pushq  $0x0
  101222:	6a 00                	pushq  $0x0
  101224:	eb e8                	jmp    10120e <asm_isr_common_handler>

0000000000101226 <asm_isr1>:
  101226:	fa                   	cli    
  101227:	6a 00                	pushq  $0x0
  101229:	6a 01                	pushq  $0x1
  10122b:	eb e1                	jmp    10120e <asm_isr_common_handler>

000000000010122d <asm_isr2>:
  10122d:	fa                   	cli    
  10122e:	6a 00                	pushq  $0x0
  101230:	6a 02                	pushq  $0x2
  101232:	eb da                	jmp    10120e <asm_isr_common_handler>

0000000000101234 <asm_isr3>:
  101234:	fa                   	cli    
  101235:	6a 00                	pushq  $0x0
  101237:	6a 03                	pushq  $0x3
  101239:	eb d3                	jmp    10120e <asm_isr_common_handler>

000000000010123b <asm_isr4>:
  10123b:	fa                   	cli    
  10123c:	6a 00                	pushq  $0x0
  10123e:	6a 04                	pushq  $0x4
  101240:	eb cc                	jmp    10120e <asm_isr_common_handler>

0000000000101242 <asm_isr5>:
  101242:	fa                   	cli    
  101243:	6a 00                	pushq  $0x0
  101245:	6a 05                	pushq  $0x5
  101247:	eb c5                	jmp    10120e <asm_isr_common_handler>

0000000000101249 <asm_isr6>:
  101249:	fa                   	cli    
  10124a:	6a 00                	pushq  $0x0
  10124c:	6a 06                	pushq  $0x6
  10124e:	eb be                	jmp    10120e <asm_isr_common_handler>

0000000000101250 <asm_isr7>:
  101250:	fa                   	cli    
  101251:	6a 00                	pushq  $0x0
  101253:	6a 07                	pushq  $0x7
  101255:	eb b7                	jmp    10120e <asm_isr_common_handler>

0000000000101257 <asm_isr8>:
  101257:	fa                   	cli    
  101258:	6a 08                	pushq  $0x8
  10125a:	eb b2                	jmp    10120e <asm_isr_common_handler>

000000000010125c <asm_isr9>:
  10125c:	fa                   	cli    
  10125d:	6a 00                	pushq  $0x0
  10125f:	6a 09                	pushq  $0x9
  101261:	eb ab                	jmp    10120e <asm_isr_common_handler>

0000000000101263 <asm_isr10>:
  101263:	fa                   	cli    
  101264:	6a 0a                	pushq  $0xa
  101266:	eb a6                	jmp    10120e <asm_isr_common_handler>

0000000000101268 <asm_isr11>:
  101268:	fa                   	cli    
  101269:	6a 0b                	pushq  $0xb
  10126b:	eb a1                	jmp    10120e <asm_isr_common_handler>

000000000010126d <asm_isr12>:
  10126d:	fa                   	cli    
  10126e:	6a 0c                	pushq  $0xc
  101270:	eb 9c                	jmp    10120e <asm_isr_common_handler>

0000000000101272 <asm_isr13>:
  101272:	fa                   	cli    
  101273:	6a 0d                	pushq  $0xd
  101275:	eb 97                	jmp    10120e <asm_isr_common_handler>

0000000000101277 <asm_isr14>:
  101277:	fa                   	cli    
  101278:	6a 0e                	pushq  $0xe
  10127a:	eb 92                	jmp    10120e <asm_isr_common_handler>

000000000010127c <asm_isr15>:
  10127c:	fa                   	cli    
  10127d:	6a 00                	pushq  $0x0
  10127f:	6a 0f                	pushq  $0xf
  101281:	eb 8b                	jmp    10120e <asm_isr_common_handler>

0000000000101283 <asm_isr16>:
  101283:	fa                   	cli    
  101284:	6a 00                	pushq  $0x0
  101286:	6a 10                	pushq  $0x10
  101288:	eb 84                	jmp    10120e <asm_isr_common_handler>

000000000010128a <asm_isr17>:
  10128a:	fa                   	cli    
  10128b:	6a 11                	pushq  $0x11
  10128d:	e9 7c ff ff ff       	jmpq   10120e <asm_isr_common_handler>

0000000000101292 <asm_isr18>:
  101292:	fa                   	cli    
  101293:	6a 00                	pushq  $0x0
  101295:	6a 12                	pushq  $0x12
  101297:	e9 72 ff ff ff       	jmpq   10120e <asm_isr_common_handler>

000000000010129c <asm_isr19>:
  10129c:	fa                   	cli    
  10129d:	6a 00                	pushq  $0x0
  10129f:	6a 13                	pushq  $0x13
  1012a1:	e9 68 ff ff ff       	jmpq   10120e <asm_isr_common_handler>

00000000001012a6 <asm_isr20>:
  1012a6:	fa                   	cli    
  1012a7:	6a 00                	pushq  $0x0
  1012a9:	6a 14                	pushq  $0x14
  1012ab:	e9 5e ff ff ff       	jmpq   10120e <asm_isr_common_handler>

00000000001012b0 <asm_isr21>:
  1012b0:	fa                   	cli    
  1012b1:	6a 00                	pushq  $0x0
  1012b3:	6a 15                	pushq  $0x15
  1012b5:	e9 54 ff ff ff       	jmpq   10120e <asm_isr_common_handler>

00000000001012ba <asm_isr22>:
  1012ba:	fa                   	cli    
  1012bb:	6a 00                	pushq  $0x0
  1012bd:	6a 16                	pushq  $0x16
  1012bf:	e9 4a ff ff ff       	jmpq   10120e <asm_isr_common_handler>

00000000001012c4 <asm_isr23>:
  1012c4:	fa                   	cli    
  1012c5:	6a 00                	pushq  $0x0
  1012c7:	6a 17                	pushq  $0x17
  1012c9:	e9 40 ff ff ff       	jmpq   10120e <asm_isr_common_handler>

00000000001012ce <asm_isr24>:
  1012ce:	fa                   	cli    
  1012cf:	6a 00                	pushq  $0x0
  1012d1:	6a 18                	pushq  $0x18
  1012d3:	e9 36 ff ff ff       	jmpq   10120e <asm_isr_common_handler>

00000000001012d8 <asm_isr25>:
  1012d8:	fa                   	cli    
  1012d9:	6a 00                	pushq  $0x0
  1012db:	6a 19                	pushq  $0x19
  1012dd:	e9 2c ff ff ff       	jmpq   10120e <asm_isr_common_handler>

00000000001012e2 <asm_isr26>:
  1012e2:	fa                   	cli    
  1012e3:	6a 00                	pushq  $0x0
  1012e5:	6a 1a                	pushq  $0x1a
  1012e7:	e9 22 ff ff ff       	jmpq   10120e <asm_isr_common_handler>

00000000001012ec <asm_isr27>:
  1012ec:	fa                   	cli    
  1012ed:	6a 00                	pushq  $0x0
  1012ef:	6a 1b                	pushq  $0x1b
  1012f1:	e9 18 ff ff ff       	jmpq   10120e <asm_isr_common_handler>

00000000001012f6 <asm_isr28>:
  1012f6:	fa                   	cli    
  1012f7:	6a 00                	pushq  $0x0
  1012f9:	6a 1c                	pushq  $0x1c
  1012fb:	e9 0e ff ff ff       	jmpq   10120e <asm_isr_common_handler>

0000000000101300 <asm_isr29>:
  101300:	fa                   	cli    
  101301:	6a 00                	pushq  $0x0
  101303:	6a 1d                	pushq  $0x1d
  101305:	e9 04 ff ff ff       	jmpq   10120e <asm_isr_common_handler>

000000000010130a <asm_isr30>:
  10130a:	fa                   	cli    
  10130b:	6a 00                	pushq  $0x0
  10130d:	6a 1e                	pushq  $0x1e
  10130f:	e9 fa fe ff ff       	jmpq   10120e <asm_isr_common_handler>

0000000000101314 <asm_isr31>:
  101314:	fa                   	cli    
  101315:	6a 00                	pushq  $0x0
  101317:	6a 1f                	pushq  $0x1f
  101319:	e9 f0 fe ff ff       	jmpq   10120e <asm_isr_common_handler>

000000000010131e <asm_irq0>:
  10131e:	fa                   	cli    
  10131f:	6a 00                	pushq  $0x0
  101321:	e9 d7 fe ff ff       	jmpq   1011fd <asm_irq_common_handler>

0000000000101326 <asm_irq1>:
  101326:	fa                   	cli    
  101327:	6a 01                	pushq  $0x1
  101329:	e9 cf fe ff ff       	jmpq   1011fd <asm_irq_common_handler>

000000000010132e <asm_longmode_entry>:
  10132e:	66 b8 10 00          	mov    $0x10,%ax
  101332:	8e d8                	mov    %eax,%ds
  101334:	8e c0                	mov    %eax,%es
  101336:	8e e0                	mov    %eax,%fs
  101338:	8e e8                	mov    %eax,%gs
  10133a:	66 b8 00 00          	mov    $0x0,%ax
  10133e:	8e d0                	mov    %eax,%ss
  101340:	e8 e1 05 00 00       	callq  101926 <kernel_longmode_entry>
  101345:	f4                   	hlt    

0000000000101346 <__memset>:
  101346:	55                   	push   %rbp
  101347:	48 89 e5             	mov    %rsp,%rbp
  10134a:	48 83 ec 28          	sub    $0x28,%rsp
  10134e:	48 89 7d e8          	mov    %rdi,-0x18(%rbp)
  101352:	89 f0                	mov    %esi,%eax
  101354:	48 89 55 d8          	mov    %rdx,-0x28(%rbp)
  101358:	88 45 e4             	mov    %al,-0x1c(%rbp)
  10135b:	48 c7 45 f8 00 00 00 	movq   $0x0,-0x8(%rbp)
  101362:	00 
  101363:	eb 16                	jmp    10137b <__memset+0x35>
  101365:	48 8b 55 e8          	mov    -0x18(%rbp),%rdx
  101369:	48 8b 45 f8          	mov    -0x8(%rbp),%rax
  10136d:	48 01 c2             	add    %rax,%rdx
  101370:	0f b6 45 e4          	movzbl -0x1c(%rbp),%eax
  101374:	88 02                	mov    %al,(%rdx)
  101376:	48 83 45 f8 01       	addq   $0x1,-0x8(%rbp)
  10137b:	48 8b 45 f8          	mov    -0x8(%rbp),%rax
  10137f:	48 3b 45 d8          	cmp    -0x28(%rbp),%rax
  101383:	72 e0                	jb     101365 <__memset+0x1f>
  101385:	90                   	nop
  101386:	c9                   	leaveq 
  101387:	c3                   	retq   

0000000000101388 <strings_match>:
  101388:	55                   	push   %rbp
  101389:	48 89 e5             	mov    %rsp,%rbp
  10138c:	48 83 ec 30          	sub    $0x30,%rsp
  101390:	48 89 7d e8          	mov    %rdi,-0x18(%rbp)
  101394:	48 89 75 e0          	mov    %rsi,-0x20(%rbp)
  101398:	48 89 55 d8          	mov    %rdx,-0x28(%rbp)
  10139c:	48 89 4d d0          	mov    %rcx,-0x30(%rbp)
  1013a0:	48 8b 45 e0          	mov    -0x20(%rbp),%rax
  1013a4:	48 3b 45 d0          	cmp    -0x30(%rbp),%rax
  1013a8:	74 07                	je     1013b1 <strings_match+0x29>
  1013aa:	b8 00 00 00 00       	mov    $0x0,%eax
  1013af:	eb 45                	jmp    1013f6 <strings_match+0x6e>
  1013b1:	48 c7 45 f8 00 00 00 	movq   $0x0,-0x8(%rbp)
  1013b8:	00 
  1013b9:	eb 2c                	jmp    1013e7 <strings_match+0x5f>
  1013bb:	48 8b 55 e8          	mov    -0x18(%rbp),%rdx
  1013bf:	48 8b 45 f8          	mov    -0x8(%rbp),%rax
  1013c3:	48 01 d0             	add    %rdx,%rax
  1013c6:	0f b6 10             	movzbl (%rax),%edx
  1013c9:	48 8b 4d d8          	mov    -0x28(%rbp),%rcx
  1013cd:	48 8b 45 f8          	mov    -0x8(%rbp),%rax
  1013d1:	48 01 c8             	add    %rcx,%rax
  1013d4:	0f b6 00             	movzbl (%rax),%eax
  1013d7:	38 c2                	cmp    %al,%dl
  1013d9:	74 07                	je     1013e2 <strings_match+0x5a>
  1013db:	b8 00 00 00 00       	mov    $0x0,%eax
  1013e0:	eb 14                	jmp    1013f6 <strings_match+0x6e>
  1013e2:	48 83 45 f8 01       	addq   $0x1,-0x8(%rbp)
  1013e7:	48 8b 45 f8          	mov    -0x8(%rbp),%rax
  1013eb:	48 3b 45 e0          	cmp    -0x20(%rbp),%rax
  1013ef:	72 ca                	jb     1013bb <strings_match+0x33>
  1013f1:	b8 01 00 00 00       	mov    $0x1,%eax
  1013f6:	c9                   	leaveq 
  1013f7:	c3                   	retq   

00000000001013f8 <is_char_alpha>:
  1013f8:	55                   	push   %rbp
  1013f9:	48 89 e5             	mov    %rsp,%rbp
  1013fc:	48 83 ec 08          	sub    $0x8,%rsp
  101400:	89 f8                	mov    %edi,%eax
  101402:	88 45 fc             	mov    %al,-0x4(%rbp)
  101405:	80 7d fc 40          	cmpb   $0x40,-0x4(%rbp)
  101409:	7e 06                	jle    101411 <is_char_alpha+0x19>
  10140b:	80 7d fc 5a          	cmpb   $0x5a,-0x4(%rbp)
  10140f:	7e 0c                	jle    10141d <is_char_alpha+0x25>
  101411:	80 7d fc 60          	cmpb   $0x60,-0x4(%rbp)
  101415:	7e 0d                	jle    101424 <is_char_alpha+0x2c>
  101417:	80 7d fc 7a          	cmpb   $0x7a,-0x4(%rbp)
  10141b:	7f 07                	jg     101424 <is_char_alpha+0x2c>
  10141d:	b8 01 00 00 00       	mov    $0x1,%eax
  101422:	eb 05                	jmp    101429 <is_char_alpha+0x31>
  101424:	b8 00 00 00 00       	mov    $0x0,%eax
  101429:	c9                   	leaveq 
  10142a:	c3                   	retq   

000000000010142b <x86_pic8259_initalize>:
  10142b:	55                   	push   %rbp
  10142c:	48 89 e5             	mov    %rsp,%rbp
  10142f:	0f b6 05 e2 eb ff ff 	movzbl -0x141e(%rip),%eax        # 100018 <header_end>
  101436:	0f b6 d0             	movzbl %al,%edx
  101439:	0f b6 05 d9 eb ff ff 	movzbl -0x1427(%rip),%eax        # 100019 <PIC1_COMMAND_PORT.1454>
  101440:	0f b6 c0             	movzbl %al,%eax
  101443:	89 d6                	mov    %edx,%esi
  101445:	89 c7                	mov    %eax,%edi
  101447:	e8 5b fd ff ff       	callq  1011a7 <write_port>
  10144c:	0f b6 05 c5 eb ff ff 	movzbl -0x143b(%rip),%eax        # 100018 <header_end>
  101453:	0f b6 d0             	movzbl %al,%edx
  101456:	0f b6 05 bd eb ff ff 	movzbl -0x1443(%rip),%eax        # 10001a <PIC2_COMMAND_PORT.1455>
  10145d:	0f b6 c0             	movzbl %al,%eax
  101460:	89 d6                	mov    %edx,%esi
  101462:	89 c7                	mov    %eax,%edi
  101464:	e8 3e fd ff ff       	callq  1011a7 <write_port>
  101469:	0f b6 05 ab eb ff ff 	movzbl -0x1455(%rip),%eax        # 10001b <ICW2_PIC1_IRQ_NUMBER_BEGIN.1459>
  101470:	0f b6 d0             	movzbl %al,%edx
  101473:	0f b6 05 a2 eb ff ff 	movzbl -0x145e(%rip),%eax        # 10001c <PIC1_DATA_PORT.1456>
  10147a:	0f b6 c0             	movzbl %al,%eax
  10147d:	89 d6                	mov    %edx,%esi
  10147f:	89 c7                	mov    %eax,%edi
  101481:	e8 21 fd ff ff       	callq  1011a7 <write_port>
  101486:	0f b6 05 90 eb ff ff 	movzbl -0x1470(%rip),%eax        # 10001d <ICW2_PIC2_IRQ_NUMBER_BEGIN.1460>
  10148d:	0f b6 d0             	movzbl %al,%edx
  101490:	0f b6 05 87 eb ff ff 	movzbl -0x1479(%rip),%eax        # 10001e <PIC2_DATA_PORT.1457>
  101497:	0f b6 c0             	movzbl %al,%eax
  10149a:	89 d6                	mov    %edx,%esi
  10149c:	89 c7                	mov    %eax,%edi
  10149e:	e8 04 fd ff ff       	callq  1011a7 <write_port>
  1014a3:	0f b6 05 75 eb ff ff 	movzbl -0x148b(%rip),%eax        # 10001f <ICW3_PIC1_IRQ_LINE_2.1461>
  1014aa:	0f b6 d0             	movzbl %al,%edx
  1014ad:	0f b6 05 68 eb ff ff 	movzbl -0x1498(%rip),%eax        # 10001c <PIC1_DATA_PORT.1456>
  1014b4:	0f b6 c0             	movzbl %al,%eax
  1014b7:	89 d6                	mov    %edx,%esi
  1014b9:	89 c7                	mov    %eax,%edi
  1014bb:	e8 e7 fc ff ff       	callq  1011a7 <write_port>
  1014c0:	0f b6 05 59 eb ff ff 	movzbl -0x14a7(%rip),%eax        # 100020 <ICW3_PIC2_IRQ_LINE_2.1462>
  1014c7:	0f b6 d0             	movzbl %al,%edx
  1014ca:	0f b6 05 4d eb ff ff 	movzbl -0x14b3(%rip),%eax        # 10001e <PIC2_DATA_PORT.1457>
  1014d1:	0f b6 c0             	movzbl %al,%eax
  1014d4:	89 d6                	mov    %edx,%esi
  1014d6:	89 c7                	mov    %eax,%edi
  1014d8:	e8 ca fc ff ff       	callq  1011a7 <write_port>
  1014dd:	0f b6 05 3d eb ff ff 	movzbl -0x14c3(%rip),%eax        # 100021 <ICW4_8068.1463>
  1014e4:	0f b6 d0             	movzbl %al,%edx
  1014e7:	0f b6 05 2e eb ff ff 	movzbl -0x14d2(%rip),%eax        # 10001c <PIC1_DATA_PORT.1456>
  1014ee:	0f b6 c0             	movzbl %al,%eax
  1014f1:	89 d6                	mov    %edx,%esi
  1014f3:	89 c7                	mov    %eax,%edi
  1014f5:	e8 ad fc ff ff       	callq  1011a7 <write_port>
  1014fa:	0f b6 05 20 eb ff ff 	movzbl -0x14e0(%rip),%eax        # 100021 <ICW4_8068.1463>
  101501:	0f b6 d0             	movzbl %al,%edx
  101504:	0f b6 05 13 eb ff ff 	movzbl -0x14ed(%rip),%eax        # 10001e <PIC2_DATA_PORT.1457>
  10150b:	0f b6 c0             	movzbl %al,%eax
  10150e:	89 d6                	mov    %edx,%esi
  101510:	89 c7                	mov    %eax,%edi
  101512:	e8 90 fc ff ff       	callq  1011a7 <write_port>
  101517:	0f b6 05 fe ea ff ff 	movzbl -0x1502(%rip),%eax        # 10001c <PIC1_DATA_PORT.1456>
  10151e:	0f b6 c0             	movzbl %al,%eax
  101521:	be ff 00 00 00       	mov    $0xff,%esi
  101526:	89 c7                	mov    %eax,%edi
  101528:	e8 7a fc ff ff       	callq  1011a7 <write_port>
  10152d:	0f b6 05 ea ea ff ff 	movzbl -0x1516(%rip),%eax        # 10001e <PIC2_DATA_PORT.1457>
  101534:	0f b6 c0             	movzbl %al,%eax
  101537:	be ff 00 00 00       	mov    $0xff,%esi
  10153c:	89 c7                	mov    %eax,%edi
  10153e:	e8 64 fc ff ff       	callq  1011a7 <write_port>
  101543:	90                   	nop
  101544:	5d                   	pop    %rbp
  101545:	c3                   	retq   

0000000000101546 <x86_pit_initialize>:
  101546:	55                   	push   %rbp
  101547:	48 89 e5             	mov    %rsp,%rbp
  10154a:	48 83 ec 10          	sub    $0x10,%rsp
  10154e:	8b 05 d0 ea ff ff    	mov    -0x1530(%rip),%eax        # 100024 <PIT_DIVISOR.1468>
  101554:	88 45 ff             	mov    %al,-0x1(%rbp)
  101557:	8b 05 c7 ea ff ff    	mov    -0x1539(%rip),%eax        # 100024 <PIT_DIVISOR.1468>
  10155d:	c1 e8 08             	shr    $0x8,%eax
  101560:	88 45 fe             	mov    %al,-0x2(%rbp)
  101563:	8b 05 bf ea ff ff    	mov    -0x1541(%rip),%eax        # 100028 <PIT_COMMAND_REPEATING_MODE.1467>
  101569:	0f b6 d0             	movzbl %al,%edx
  10156c:	0f b6 05 b9 ea ff ff 	movzbl -0x1547(%rip),%eax        # 10002c <PIT_COMMAND_PORT.1472>
  101573:	0f b6 c0             	movzbl %al,%eax
  101576:	89 d6                	mov    %edx,%esi
  101578:	89 c7                	mov    %eax,%edi
  10157a:	e8 28 fc ff ff       	callq  1011a7 <write_port>
  10157f:	0f b6 55 ff          	movzbl -0x1(%rbp),%edx
  101583:	0f b6 05 a3 ea ff ff 	movzbl -0x155d(%rip),%eax        # 10002d <PIT_DATA_PORT0.1469>
  10158a:	0f b6 c0             	movzbl %al,%eax
  10158d:	89 d6                	mov    %edx,%esi
  10158f:	89 c7                	mov    %eax,%edi
  101591:	e8 11 fc ff ff       	callq  1011a7 <write_port>
  101596:	0f b6 55 fe          	movzbl -0x2(%rbp),%edx
  10159a:	0f b6 05 8c ea ff ff 	movzbl -0x1574(%rip),%eax        # 10002d <PIT_DATA_PORT0.1469>
  1015a1:	0f b6 c0             	movzbl %al,%eax
  1015a4:	89 d6                	mov    %edx,%esi
  1015a6:	89 c7                	mov    %eax,%edi
  1015a8:	e8 fa fb ff ff       	callq  1011a7 <write_port>
  1015ad:	90                   	nop
  1015ae:	c9                   	leaveq 
  1015af:	c3                   	retq   

00000000001015b0 <vga_text_clear_screen>:
  1015b0:	55                   	push   %rbp
  1015b1:	48 89 e5             	mov    %rsp,%rbp
  1015b4:	48 83 ec 10          	sub    $0x10,%rsp
  1015b8:	48 c7 45 f8 00 80 0b 	movq   $0xb8000,-0x8(%rbp)
  1015bf:	00 
  1015c0:	0f b6 05 69 ea ff ff 	movzbl -0x1597(%rip),%eax        # 100030 <VGA_TEXT_COLUMN_COUNT.1477>
  1015c7:	0f b6 d0             	movzbl %al,%edx
  1015ca:	0f b6 05 60 ea ff ff 	movzbl -0x15a0(%rip),%eax        # 100031 <VGA_TEXT_ROW_COUNT.1478>
  1015d1:	0f b6 c0             	movzbl %al,%eax
  1015d4:	0f af c2             	imul   %edx,%eax
  1015d7:	01 c0                	add    %eax,%eax
  1015d9:	48 63 d0             	movslq %eax,%rdx
  1015dc:	48 8b 45 f8          	mov    -0x8(%rbp),%rax
  1015e0:	be 00 00 00 00       	mov    $0x0,%esi
  1015e5:	48 89 c7             	mov    %rax,%rdi
  1015e8:	e8 59 fd ff ff       	callq  101346 <__memset>
  1015ed:	90                   	nop
  1015ee:	c9                   	leaveq 
  1015ef:	c3                   	retq   

00000000001015f0 <idt_install_interrupt>:
  1015f0:	55                   	push   %rbp
  1015f1:	48 89 e5             	mov    %rsp,%rbp
  1015f4:	48 83 ec 10          	sub    $0x10,%rsp
  1015f8:	89 7d fc             	mov    %edi,-0x4(%rbp)
  1015fb:	48 89 75 f0          	mov    %rsi,-0x10(%rbp)
  1015ff:	48 8b 45 f0          	mov    -0x10(%rbp),%rax
  101603:	89 c2                	mov    %eax,%edx
  101605:	8b 45 fc             	mov    -0x4(%rbp),%eax
  101608:	48 c1 e0 04          	shl    $0x4,%rax
  10160c:	48 05 00 70 10 00    	add    $0x107000,%rax
  101612:	66 89 10             	mov    %dx,(%rax)
  101615:	48 8b 45 f0          	mov    -0x10(%rbp),%rax
  101619:	48 c1 e8 10          	shr    $0x10,%rax
  10161d:	89 c2                	mov    %eax,%edx
  10161f:	8b 45 fc             	mov    -0x4(%rbp),%eax
  101622:	48 c1 e0 04          	shl    $0x4,%rax
  101626:	48 05 06 70 10 00    	add    $0x107006,%rax
  10162c:	66 89 10             	mov    %dx,(%rax)
  10162f:	48 8b 45 f0          	mov    -0x10(%rbp),%rax
  101633:	48 c1 e8 20          	shr    $0x20,%rax
  101637:	89 c2                	mov    %eax,%edx
  101639:	8b 45 fc             	mov    -0x4(%rbp),%eax
  10163c:	48 c1 e0 04          	shl    $0x4,%rax
  101640:	48 05 08 70 10 00    	add    $0x107008,%rax
  101646:	89 10                	mov    %edx,(%rax)
  101648:	48 8b 05 e9 e9 ff ff 	mov    -0x1617(%rip),%rax        # 100038 <PRESENT_BIT.1486>
  10164f:	89 c2                	mov    %eax,%edx
  101651:	48 8b 05 e8 e9 ff ff 	mov    -0x1618(%rip),%rax        # 100040 <TYPE_INTERRUPT_GATE_32.1488>
  101658:	09 c2                	or     %eax,%edx
  10165a:	48 8b 05 e7 e9 ff ff 	mov    -0x1619(%rip),%rax        # 100048 <PRIVILEGE_LEVEL_0.1484>
  101661:	09 c2                	or     %eax,%edx
  101663:	8b 45 fc             	mov    -0x4(%rbp),%eax
  101666:	48 c1 e0 04          	shl    $0x4,%rax
  10166a:	48 05 05 70 10 00    	add    $0x107005,%rax
  101670:	88 10                	mov    %dl,(%rax)
  101672:	0f b6 05 d7 e9 ff ff 	movzbl -0x1629(%rip),%eax        # 100050 <GDT_CODE_SEGMENT_OFFSET.1490>
  101679:	0f b6 c0             	movzbl %al,%eax
  10167c:	8b 55 fc             	mov    -0x4(%rbp),%edx
  10167f:	48 c1 e2 04          	shl    $0x4,%rdx
  101683:	48 81 c2 02 70 10 00 	add    $0x107002,%rdx
  10168a:	66 89 02             	mov    %ax,(%rdx)
  10168d:	8b 45 fc             	mov    -0x4(%rbp),%eax
  101690:	48 c1 e0 04          	shl    $0x4,%rax
  101694:	48 05 04 70 10 00    	add    $0x107004,%rax
  10169a:	c6 00 00             	movb   $0x0,(%rax)
  10169d:	90                   	nop
  10169e:	c9                   	leaveq 
  10169f:	c3                   	retq   

00000000001016a0 <x86_64_idt_initalize>:
  1016a0:	55                   	push   %rbp
  1016a1:	48 89 e5             	mov    %rsp,%rbp
  1016a4:	48 83 ec 10          	sub    $0x10,%rsp
  1016a8:	c7 45 fc 00 00 00 00 	movl   $0x0,-0x4(%rbp)
  1016af:	eb 16                	jmp    1016c7 <x86_64_idt_initalize+0x27>
  1016b1:	ba d8 11 10 00       	mov    $0x1011d8,%edx
  1016b6:	8b 45 fc             	mov    -0x4(%rbp),%eax
  1016b9:	48 89 d6             	mov    %rdx,%rsi
  1016bc:	89 c7                	mov    %eax,%edi
  1016be:	e8 2d ff ff ff       	callq  1015f0 <idt_install_interrupt>
  1016c3:	83 45 fc 01          	addl   $0x1,-0x4(%rbp)
  1016c7:	81 7d fc ff 00 00 00 	cmpl   $0xff,-0x4(%rbp)
  1016ce:	76 e1                	jbe    1016b1 <x86_64_idt_initalize+0x11>
  1016d0:	b8 1f 12 10 00       	mov    $0x10121f,%eax
  1016d5:	48 89 c6             	mov    %rax,%rsi
  1016d8:	bf 00 00 00 00       	mov    $0x0,%edi
  1016dd:	e8 0e ff ff ff       	callq  1015f0 <idt_install_interrupt>
  1016e2:	b8 26 12 10 00       	mov    $0x101226,%eax
  1016e7:	48 89 c6             	mov    %rax,%rsi
  1016ea:	bf 01 00 00 00       	mov    $0x1,%edi
  1016ef:	e8 fc fe ff ff       	callq  1015f0 <idt_install_interrupt>
  1016f4:	b8 2d 12 10 00       	mov    $0x10122d,%eax
  1016f9:	48 89 c6             	mov    %rax,%rsi
  1016fc:	bf 02 00 00 00       	mov    $0x2,%edi
  101701:	e8 ea fe ff ff       	callq  1015f0 <idt_install_interrupt>
  101706:	b8 34 12 10 00       	mov    $0x101234,%eax
  10170b:	48 89 c6             	mov    %rax,%rsi
  10170e:	bf 03 00 00 00       	mov    $0x3,%edi
  101713:	e8 d8 fe ff ff       	callq  1015f0 <idt_install_interrupt>
  101718:	b8 3b 12 10 00       	mov    $0x10123b,%eax
  10171d:	48 89 c6             	mov    %rax,%rsi
  101720:	bf 04 00 00 00       	mov    $0x4,%edi
  101725:	e8 c6 fe ff ff       	callq  1015f0 <idt_install_interrupt>
  10172a:	b8 42 12 10 00       	mov    $0x101242,%eax
  10172f:	48 89 c6             	mov    %rax,%rsi
  101732:	bf 05 00 00 00       	mov    $0x5,%edi
  101737:	e8 b4 fe ff ff       	callq  1015f0 <idt_install_interrupt>
  10173c:	b8 49 12 10 00       	mov    $0x101249,%eax
  101741:	48 89 c6             	mov    %rax,%rsi
  101744:	bf 06 00 00 00       	mov    $0x6,%edi
  101749:	e8 a2 fe ff ff       	callq  1015f0 <idt_install_interrupt>
  10174e:	b8 50 12 10 00       	mov    $0x101250,%eax
  101753:	48 89 c6             	mov    %rax,%rsi
  101756:	bf 07 00 00 00       	mov    $0x7,%edi
  10175b:	e8 90 fe ff ff       	callq  1015f0 <idt_install_interrupt>
  101760:	b8 b3 11 10 00       	mov    $0x1011b3,%eax
  101765:	48 89 c6             	mov    %rax,%rsi
  101768:	bf 08 00 00 00       	mov    $0x8,%edi
  10176d:	e8 7e fe ff ff       	callq  1015f0 <idt_install_interrupt>
  101772:	b8 5c 12 10 00       	mov    $0x10125c,%eax
  101777:	48 89 c6             	mov    %rax,%rsi
  10177a:	bf 09 00 00 00       	mov    $0x9,%edi
  10177f:	e8 6c fe ff ff       	callq  1015f0 <idt_install_interrupt>
  101784:	b8 63 12 10 00       	mov    $0x101263,%eax
  101789:	48 89 c6             	mov    %rax,%rsi
  10178c:	bf 0a 00 00 00       	mov    $0xa,%edi
  101791:	e8 5a fe ff ff       	callq  1015f0 <idt_install_interrupt>
  101796:	b8 68 12 10 00       	mov    $0x101268,%eax
  10179b:	48 89 c6             	mov    %rax,%rsi
  10179e:	bf 0b 00 00 00       	mov    $0xb,%edi
  1017a3:	e8 48 fe ff ff       	callq  1015f0 <idt_install_interrupt>
  1017a8:	b8 6d 12 10 00       	mov    $0x10126d,%eax
  1017ad:	48 89 c6             	mov    %rax,%rsi
  1017b0:	bf 0c 00 00 00       	mov    $0xc,%edi
  1017b5:	e8 36 fe ff ff       	callq  1015f0 <idt_install_interrupt>
  1017ba:	b8 72 12 10 00       	mov    $0x101272,%eax
  1017bf:	48 89 c6             	mov    %rax,%rsi
  1017c2:	bf 0d 00 00 00       	mov    $0xd,%edi
  1017c7:	e8 24 fe ff ff       	callq  1015f0 <idt_install_interrupt>
  1017cc:	b8 77 12 10 00       	mov    $0x101277,%eax
  1017d1:	48 89 c6             	mov    %rax,%rsi
  1017d4:	bf 0e 00 00 00       	mov    $0xe,%edi
  1017d9:	e8 12 fe ff ff       	callq  1015f0 <idt_install_interrupt>
  1017de:	b8 7c 12 10 00       	mov    $0x10127c,%eax
  1017e3:	48 89 c6             	mov    %rax,%rsi
  1017e6:	bf 0f 00 00 00       	mov    $0xf,%edi
  1017eb:	e8 00 fe ff ff       	callq  1015f0 <idt_install_interrupt>
  1017f0:	b8 83 12 10 00       	mov    $0x101283,%eax
  1017f5:	48 89 c6             	mov    %rax,%rsi
  1017f8:	bf 10 00 00 00       	mov    $0x10,%edi
  1017fd:	e8 ee fd ff ff       	callq  1015f0 <idt_install_interrupt>
  101802:	b8 8a 12 10 00       	mov    $0x10128a,%eax
  101807:	48 89 c6             	mov    %rax,%rsi
  10180a:	bf 11 00 00 00       	mov    $0x11,%edi
  10180f:	e8 dc fd ff ff       	callq  1015f0 <idt_install_interrupt>
  101814:	b8 92 12 10 00       	mov    $0x101292,%eax
  101819:	48 89 c6             	mov    %rax,%rsi
  10181c:	bf 12 00 00 00       	mov    $0x12,%edi
  101821:	e8 ca fd ff ff       	callq  1015f0 <idt_install_interrupt>
  101826:	b8 9c 12 10 00       	mov    $0x10129c,%eax
  10182b:	48 89 c6             	mov    %rax,%rsi
  10182e:	bf 13 00 00 00       	mov    $0x13,%edi
  101833:	e8 b8 fd ff ff       	callq  1015f0 <idt_install_interrupt>
  101838:	b8 a6 12 10 00       	mov    $0x1012a6,%eax
  10183d:	48 89 c6             	mov    %rax,%rsi
  101840:	bf 14 00 00 00       	mov    $0x14,%edi
  101845:	e8 a6 fd ff ff       	callq  1015f0 <idt_install_interrupt>
  10184a:	b8 b0 12 10 00       	mov    $0x1012b0,%eax
  10184f:	48 89 c6             	mov    %rax,%rsi
  101852:	bf 15 00 00 00       	mov    $0x15,%edi
  101857:	e8 94 fd ff ff       	callq  1015f0 <idt_install_interrupt>
  10185c:	b8 ba 12 10 00       	mov    $0x1012ba,%eax
  101861:	48 89 c6             	mov    %rax,%rsi
  101864:	bf 16 00 00 00       	mov    $0x16,%edi
  101869:	e8 82 fd ff ff       	callq  1015f0 <idt_install_interrupt>
  10186e:	b8 c4 12 10 00       	mov    $0x1012c4,%eax
  101873:	48 89 c6             	mov    %rax,%rsi
  101876:	bf 17 00 00 00       	mov    $0x17,%edi
  10187b:	e8 70 fd ff ff       	callq  1015f0 <idt_install_interrupt>
  101880:	b8 ce 12 10 00       	mov    $0x1012ce,%eax
  101885:	48 89 c6             	mov    %rax,%rsi
  101888:	bf 18 00 00 00       	mov    $0x18,%edi
  10188d:	e8 5e fd ff ff       	callq  1015f0 <idt_install_interrupt>
  101892:	b8 d8 12 10 00       	mov    $0x1012d8,%eax
  101897:	48 89 c6             	mov    %rax,%rsi
  10189a:	bf 19 00 00 00       	mov    $0x19,%edi
  10189f:	e8 4c fd ff ff       	callq  1015f0 <idt_install_interrupt>
  1018a4:	b8 e2 12 10 00       	mov    $0x1012e2,%eax
  1018a9:	48 89 c6             	mov    %rax,%rsi
  1018ac:	bf 1a 00 00 00       	mov    $0x1a,%edi
  1018b1:	e8 3a fd ff ff       	callq  1015f0 <idt_install_interrupt>
  1018b6:	b8 ec 12 10 00       	mov    $0x1012ec,%eax
  1018bb:	48 89 c6             	mov    %rax,%rsi
  1018be:	bf 1b 00 00 00       	mov    $0x1b,%edi
  1018c3:	e8 28 fd ff ff       	callq  1015f0 <idt_install_interrupt>
  1018c8:	b8 f6 12 10 00       	mov    $0x1012f6,%eax
  1018cd:	48 89 c6             	mov    %rax,%rsi
  1018d0:	bf 1c 00 00 00       	mov    $0x1c,%edi
  1018d5:	e8 16 fd ff ff       	callq  1015f0 <idt_install_interrupt>
  1018da:	b8 00 13 10 00       	mov    $0x101300,%eax
  1018df:	48 89 c6             	mov    %rax,%rsi
  1018e2:	bf 1d 00 00 00       	mov    $0x1d,%edi
  1018e7:	e8 04 fd ff ff       	callq  1015f0 <idt_install_interrupt>
  1018ec:	b8 0a 13 10 00       	mov    $0x10130a,%eax
  1018f1:	48 89 c6             	mov    %rax,%rsi
  1018f4:	bf 1e 00 00 00       	mov    $0x1e,%edi
  1018f9:	e8 f2 fc ff ff       	callq  1015f0 <idt_install_interrupt>
  1018fe:	b8 14 13 10 00       	mov    $0x101314,%eax
  101903:	48 89 c6             	mov    %rax,%rsi
  101906:	bf 1f 00 00 00       	mov    $0x1f,%edi
  10190b:	e8 e0 fc ff ff       	callq  1015f0 <idt_install_interrupt>
  101910:	66 c7 45 f0 ff 0f    	movw   $0xfff,-0x10(%rbp)
  101916:	b8 00 70 10 00       	mov    $0x107000,%eax
  10191b:	48 89 45 f2          	mov    %rax,-0xe(%rbp)
  10191f:	0f 01 5d f0          	lidt   -0x10(%rbp)
  101923:	90                   	nop
  101924:	c9                   	leaveq 
  101925:	c3                   	retq   

0000000000101926 <kernel_longmode_entry>:
  101926:	55                   	push   %rbp
  101927:	48 89 e5             	mov    %rsp,%rbp
  10192a:	e8 fc fa ff ff       	callq  10142b <x86_pic8259_initalize>
  10192f:	b8 00 00 00 00       	mov    $0x0,%eax
  101934:	e8 67 fd ff ff       	callq  1016a0 <x86_64_idt_initalize>
  101939:	fb                   	sti    
  10193a:	f4                   	hlt    
  10193b:	90                   	nop
  10193c:	5d                   	pop    %rbp
  10193d:	c3                   	retq   

000000000010193e <isr_handler_page_fault>:
  10193e:	55                   	push   %rbp
  10193f:	48 89 e5             	mov    %rsp,%rbp
  101942:	90                   	nop
  101943:	5d                   	pop    %rbp
  101944:	c3                   	retq   

0000000000101945 <isr_common_handler>:
  101945:	55                   	push   %rbp
  101946:	48 89 e5             	mov    %rsp,%rbp
  101949:	8b 45 18             	mov    0x18(%rbp),%eax
  10194c:	83 f8 0e             	cmp    $0xe,%eax
  10194f:	75 1e                	jne    10196f <isr_common_handler+0x2a>
  101951:	ff 75 40             	pushq  0x40(%rbp)
  101954:	ff 75 38             	pushq  0x38(%rbp)
  101957:	ff 75 30             	pushq  0x30(%rbp)
  10195a:	ff 75 28             	pushq  0x28(%rbp)
  10195d:	ff 75 20             	pushq  0x20(%rbp)
  101960:	ff 75 18             	pushq  0x18(%rbp)
  101963:	ff 75 10             	pushq  0x10(%rbp)
  101966:	e8 d3 ff ff ff       	callq  10193e <isr_handler_page_fault>
  10196b:	48 83 c4 38          	add    $0x38,%rsp
  10196f:	90                   	nop
  101970:	c9                   	leaveq 
  101971:	c3                   	retq   

0000000000101972 <irq_common_handler>:
  101972:	55                   	push   %rbp
  101973:	48 89 e5             	mov    %rsp,%rbp
  101976:	48 83 ec 10          	sub    $0x10,%rsp
  10197a:	8b 45 34             	mov    0x34(%rbp),%eax
  10197d:	89 c0                	mov    %eax,%eax
  10197f:	48 8b 04 c5 00 88 10 	mov    0x108800(,%rax,8),%rax
  101986:	00 
  101987:	48 85 c0             	test   %rax,%rax
  10198a:	74 19                	je     1019a5 <irq_common_handler+0x33>
  10198c:	8b 45 34             	mov    0x34(%rbp),%eax
  10198f:	89 c0                	mov    %eax,%eax
  101991:	48 8b 04 c5 00 88 10 	mov    0x108800(,%rax,8),%rax
  101998:	00 
  101999:	48 89 45 f8          	mov    %rax,-0x8(%rbp)
  10199d:	48 8b 45 f8          	mov    -0x8(%rbp),%rax
  1019a1:	ff d0                	callq  *%rax
  1019a3:	eb 0a                	jmp    1019af <irq_common_handler+0x3d>
  1019a5:	8b 45 34             	mov    0x34(%rbp),%eax
  1019a8:	3d ff ff 00 00       	cmp    $0xffff,%eax
  1019ad:	74 46                	je     1019f5 <irq_common_handler+0x83>
  1019af:	8b 45 34             	mov    0x34(%rbp),%eax
  1019b2:	83 f8 07             	cmp    $0x7,%eax
  1019b5:	77 1f                	ja     1019d6 <irq_common_handler+0x64>
  1019b7:	0f b6 05 b2 e6 ff ff 	movzbl -0x194e(%rip),%eax        # 100070 <PIC_EOI_CODE.1613>
  1019be:	0f b6 d0             	movzbl %al,%edx
  1019c1:	0f b6 05 a9 e6 ff ff 	movzbl -0x1957(%rip),%eax        # 100071 <PIC1_COMMAND_PORT.1611>
  1019c8:	0f b6 c0             	movzbl %al,%eax
  1019cb:	89 d6                	mov    %edx,%esi
  1019cd:	89 c7                	mov    %eax,%edi
  1019cf:	e8 d3 f7 ff ff       	callq  1011a7 <write_port>
  1019d4:	eb 20                	jmp    1019f6 <irq_common_handler+0x84>
  1019d6:	0f b6 05 93 e6 ff ff 	movzbl -0x196d(%rip),%eax        # 100070 <PIC_EOI_CODE.1613>
  1019dd:	0f b6 d0             	movzbl %al,%edx
  1019e0:	0f b6 05 8b e6 ff ff 	movzbl -0x1975(%rip),%eax        # 100072 <PIC2_COMMAND_PORT.1612>
  1019e7:	0f b6 c0             	movzbl %al,%eax
  1019ea:	89 d6                	mov    %edx,%esi
  1019ec:	89 c7                	mov    %eax,%edi
  1019ee:	e8 b4 f7 ff ff       	callq  1011a7 <write_port>
  1019f3:	eb 01                	jmp    1019f6 <irq_common_handler+0x84>
  1019f5:	90                   	nop
  1019f6:	c9                   	leaveq 
  1019f7:	c3                   	retq   

00000000001019f8 <irq_handler_keyboard>:
  1019f8:	55                   	push   %rbp
  1019f9:	48 89 e5             	mov    %rsp,%rbp
  1019fc:	90                   	nop
  1019fd:	5d                   	pop    %rbp
  1019fe:	c3                   	retq   

00000000001019ff <irq_handler_pit>:
  1019ff:	55                   	push   %rbp
  101a00:	48 89 e5             	mov    %rsp,%rbp
  101a03:	90                   	nop
  101a04:	5d                   	pop    %rbp
  101a05:	c3                   	retq   
