
bin/kernel:     file format elf64-x86-64


Disassembly of section .text:

0000000000102000 <__memset>:
  102000:	48 85 d2             	test   rdx,rdx
  102003:	48 8d 04 17          	lea    rax,[rdi+rdx*1]
  102007:	74 13                	je     10201c <__memset+0x1c>
  102009:	0f 1f 80 00 00 00 00 	nop    DWORD PTR [rax+0x0]
  102010:	40 88 37             	mov    BYTE PTR [rdi],sil
  102013:	48 83 c7 01          	add    rdi,0x1
  102017:	48 39 c7             	cmp    rdi,rax
  10201a:	75 f4                	jne    102010 <__memset+0x10>
  10201c:	f3 c3                	repz ret 
  10201e:	66 90                	xchg   ax,ax

0000000000102020 <__memcpy>:
  102020:	31 c0                	xor    eax,eax
  102022:	48 85 d2             	test   rdx,rdx
  102025:	74 19                	je     102040 <__memcpy+0x20>
  102027:	66 0f 1f 84 00 00 00 	nop    WORD PTR [rax+rax*1+0x0]
  10202e:	00 00 
  102030:	0f b6 0c 06          	movzx  ecx,BYTE PTR [rsi+rax*1]
  102034:	88 0c 07             	mov    BYTE PTR [rdi+rax*1],cl
  102037:	48 83 c0 01          	add    rax,0x1
  10203b:	48 39 c2             	cmp    rdx,rax
  10203e:	75 f0                	jne    102030 <__memcpy+0x10>
  102040:	f3 c3                	repz ret 
  102042:	0f 1f 40 00          	nop    DWORD PTR [rax+0x0]
  102046:	66 2e 0f 1f 84 00 00 	nop    WORD PTR cs:[rax+rax*1+0x0]
  10204d:	00 00 00 

0000000000102050 <is_char_alpha>:
  102050:	83 e7 df             	and    edi,0xffffffdf
  102053:	31 c0                	xor    eax,eax
  102055:	83 ef 41             	sub    edi,0x41
  102058:	40 80 ff 19          	cmp    dil,0x19
  10205c:	0f 96 c0             	setbe  al
  10205f:	c3                   	ret    

0000000000102060 <serial_debug_init>:
  102060:	ba f9 03 00 00       	mov    edx,0x3f9
  102065:	31 c0                	xor    eax,eax
  102067:	ee                   	out    dx,al
  102068:	ba fb 03 00 00       	mov    edx,0x3fb
  10206d:	b8 80 ff ff ff       	mov    eax,0xffffff80
  102072:	ee                   	out    dx,al
  102073:	ba f8 03 00 00       	mov    edx,0x3f8
  102078:	b8 01 00 00 00       	mov    eax,0x1
  10207d:	ee                   	out    dx,al
  10207e:	ba f9 03 00 00       	mov    edx,0x3f9
  102083:	31 c0                	xor    eax,eax
  102085:	ee                   	out    dx,al
  102086:	ba fb 03 00 00       	mov    edx,0x3fb
  10208b:	b8 03 00 00 00       	mov    eax,0x3
  102090:	ee                   	out    dx,al
  102091:	ba fa 03 00 00       	mov    edx,0x3fa
  102096:	b8 c7 ff ff ff       	mov    eax,0xffffffc7
  10209b:	ee                   	out    dx,al
  10209c:	ba fc 03 00 00       	mov    edx,0x3fc
  1020a1:	b8 0b 00 00 00       	mov    eax,0xb
  1020a6:	ee                   	out    dx,al
  1020a7:	c3                   	ret    
  1020a8:	0f 1f 84 00 00 00 00 	nop    DWORD PTR [rax+rax*1+0x0]
  1020af:	00 

00000000001020b0 <is_transmit_empty>:
  1020b0:	ba fd 03 00 00       	mov    edx,0x3fd
  1020b5:	ec                   	in     al,dx
  1020b6:	83 e0 20             	and    eax,0x20
  1020b9:	0f b6 c0             	movzx  eax,al
  1020bc:	c3                   	ret    
  1020bd:	0f 1f 00             	nop    DWORD PTR [rax]

00000000001020c0 <write_serial>:
  1020c0:	48 85 f6             	test   rsi,rsi
  1020c3:	74 2a                	je     1020ef <write_serial+0x2f>
  1020c5:	48 01 fe             	add    rsi,rdi
  1020c8:	b9 fd 03 00 00       	mov    ecx,0x3fd
  1020cd:	41 b8 f8 03 00 00    	mov    r8d,0x3f8
  1020d3:	0f 1f 44 00 00       	nop    DWORD PTR [rax+rax*1+0x0]
  1020d8:	89 ca                	mov    edx,ecx
  1020da:	ec                   	in     al,dx
  1020db:	a8 20                	test   al,0x20
  1020dd:	74 f9                	je     1020d8 <write_serial+0x18>
  1020df:	0f b6 07             	movzx  eax,BYTE PTR [rdi]
  1020e2:	44 89 c2             	mov    edx,r8d
  1020e5:	ee                   	out    dx,al
  1020e6:	48 83 c7 01          	add    rdi,0x1
  1020ea:	48 39 f7             	cmp    rdi,rsi
  1020ed:	75 e9                	jne    1020d8 <write_serial+0x18>
  1020ef:	f3 c3                	repz ret 
  1020f1:	0f 1f 44 00 00       	nop    DWORD PTR [rax+rax*1+0x0]
  1020f6:	66 2e 0f 1f 84 00 00 	nop    WORD PTR cs:[rax+rax*1+0x0]
  1020fd:	00 00 00 

0000000000102100 <dw_get_tag_string>:
  102100:	83 ff 01             	cmp    edi,0x1
  102103:	0f 84 47 02 00 00    	je     102350 <dw_get_tag_string+0x250>
  102109:	83 ff 02             	cmp    edi,0x2
  10210c:	0f 84 4e 02 00 00    	je     102360 <dw_get_tag_string+0x260>
  102112:	83 ff 03             	cmp    edi,0x3
  102115:	0f 84 55 02 00 00    	je     102370 <dw_get_tag_string+0x270>
  10211b:	83 ff 04             	cmp    edi,0x4
  10211e:	0f 84 1c 02 00 00    	je     102340 <dw_get_tag_string+0x240>
  102124:	83 ff 05             	cmp    edi,0x5
  102127:	0f 84 53 02 00 00    	je     102380 <dw_get_tag_string+0x280>
  10212d:	83 ff 08             	cmp    edi,0x8
  102130:	0f 84 5a 02 00 00    	je     102390 <dw_get_tag_string+0x290>
  102136:	83 ff 0a             	cmp    edi,0xa
  102139:	0f 84 61 02 00 00    	je     1023a0 <dw_get_tag_string+0x2a0>
  10213f:	83 ff 0b             	cmp    edi,0xb
  102142:	0f 84 68 02 00 00    	je     1023b0 <dw_get_tag_string+0x2b0>
  102148:	83 ff 0d             	cmp    edi,0xd
  10214b:	0f 84 7f 02 00 00    	je     1023d0 <dw_get_tag_string+0x2d0>
  102151:	83 ff 0f             	cmp    edi,0xf
  102154:	0f 84 86 02 00 00    	je     1023e0 <dw_get_tag_string+0x2e0>
  10215a:	83 ff 10             	cmp    edi,0x10
  10215d:	0f 84 8d 02 00 00    	je     1023f0 <dw_get_tag_string+0x2f0>
  102163:	83 ff 11             	cmp    edi,0x11
  102166:	0f 84 94 02 00 00    	je     102400 <dw_get_tag_string+0x300>
  10216c:	83 ff 12             	cmp    edi,0x12
  10216f:	0f 84 9b 02 00 00    	je     102410 <dw_get_tag_string+0x310>
  102175:	83 ff 13             	cmp    edi,0x13
  102178:	0f 84 42 02 00 00    	je     1023c0 <dw_get_tag_string+0x2c0>
  10217e:	83 ff 15             	cmp    edi,0x15
  102181:	0f 84 8f 02 00 00    	je     102416 <dw_get_tag_string+0x316>
  102187:	83 ff 16             	cmp    edi,0x16
  10218a:	0f 84 8c 02 00 00    	je     10241c <dw_get_tag_string+0x31c>
  102190:	83 ff 17             	cmp    edi,0x17
  102193:	0f 84 89 02 00 00    	je     102422 <dw_get_tag_string+0x322>
  102199:	83 ff 18             	cmp    edi,0x18
  10219c:	0f 84 86 02 00 00    	je     102428 <dw_get_tag_string+0x328>
  1021a2:	83 ff 19             	cmp    edi,0x19
  1021a5:	0f 84 83 02 00 00    	je     10242e <dw_get_tag_string+0x32e>
  1021ab:	83 ff 1a             	cmp    edi,0x1a
  1021ae:	0f 84 80 02 00 00    	je     102434 <dw_get_tag_string+0x334>
  1021b4:	83 ff 1b             	cmp    edi,0x1b
  1021b7:	0f 84 7d 02 00 00    	je     10243a <dw_get_tag_string+0x33a>
  1021bd:	83 ff 1c             	cmp    edi,0x1c
  1021c0:	0f 84 7a 02 00 00    	je     102440 <dw_get_tag_string+0x340>
  1021c6:	83 ff 1d             	cmp    edi,0x1d
  1021c9:	0f 84 77 02 00 00    	je     102446 <dw_get_tag_string+0x346>
  1021cf:	83 ff 1e             	cmp    edi,0x1e
  1021d2:	0f 84 74 02 00 00    	je     10244c <dw_get_tag_string+0x34c>
  1021d8:	83 ff 1f             	cmp    edi,0x1f
  1021db:	0f 84 71 02 00 00    	je     102452 <dw_get_tag_string+0x352>
  1021e1:	83 ff 20             	cmp    edi,0x20
  1021e4:	0f 84 6e 02 00 00    	je     102458 <dw_get_tag_string+0x358>
  1021ea:	83 ff 21             	cmp    edi,0x21
  1021ed:	0f 84 6b 02 00 00    	je     10245e <dw_get_tag_string+0x35e>
  1021f3:	83 ff 22             	cmp    edi,0x22
  1021f6:	0f 84 68 02 00 00    	je     102464 <dw_get_tag_string+0x364>
  1021fc:	83 ff 23             	cmp    edi,0x23
  1021ff:	0f 84 65 02 00 00    	je     10246a <dw_get_tag_string+0x36a>
  102205:	83 ff 24             	cmp    edi,0x24
  102208:	0f 84 62 02 00 00    	je     102470 <dw_get_tag_string+0x370>
  10220e:	83 ff 25             	cmp    edi,0x25
  102211:	0f 84 5f 02 00 00    	je     102476 <dw_get_tag_string+0x376>
  102217:	83 ff 26             	cmp    edi,0x26
  10221a:	0f 84 5c 02 00 00    	je     10247c <dw_get_tag_string+0x37c>
  102220:	83 ff 27             	cmp    edi,0x27
  102223:	0f 84 59 02 00 00    	je     102482 <dw_get_tag_string+0x382>
  102229:	83 ff 28             	cmp    edi,0x28
  10222c:	0f 84 56 02 00 00    	je     102488 <dw_get_tag_string+0x388>
  102232:	83 ff 29             	cmp    edi,0x29
  102235:	0f 84 65 02 00 00    	je     1024a0 <dw_get_tag_string+0x3a0>
  10223b:	83 ff 2a             	cmp    edi,0x2a
  10223e:	0f 84 56 02 00 00    	je     10249a <dw_get_tag_string+0x39a>
  102244:	83 ff 2b             	cmp    edi,0x2b
  102247:	0f 84 47 02 00 00    	je     102494 <dw_get_tag_string+0x394>
  10224d:	83 ff 2c             	cmp    edi,0x2c
  102250:	0f 84 38 02 00 00    	je     10248e <dw_get_tag_string+0x38e>
  102256:	83 ff 2d             	cmp    edi,0x2d
  102259:	0f 84 cb 02 00 00    	je     10252a <dw_get_tag_string+0x42a>
  10225f:	83 ff 2e             	cmp    edi,0x2e
  102262:	0f 84 bc 02 00 00    	je     102524 <dw_get_tag_string+0x424>
  102268:	83 ff 2f             	cmp    edi,0x2f
  10226b:	0f 84 ad 02 00 00    	je     10251e <dw_get_tag_string+0x41e>
  102271:	83 ff 30             	cmp    edi,0x30
  102274:	0f 84 9e 02 00 00    	je     102518 <dw_get_tag_string+0x418>
  10227a:	83 ff 31             	cmp    edi,0x31
  10227d:	0f 84 8f 02 00 00    	je     102512 <dw_get_tag_string+0x412>
  102283:	83 ff 32             	cmp    edi,0x32
  102286:	0f 84 80 02 00 00    	je     10250c <dw_get_tag_string+0x40c>
  10228c:	83 ff 33             	cmp    edi,0x33
  10228f:	0f 84 71 02 00 00    	je     102506 <dw_get_tag_string+0x406>
  102295:	83 ff 34             	cmp    edi,0x34
  102298:	0f 84 62 02 00 00    	je     102500 <dw_get_tag_string+0x400>
  10229e:	83 ff 35             	cmp    edi,0x35
  1022a1:	0f 84 53 02 00 00    	je     1024fa <dw_get_tag_string+0x3fa>
  1022a7:	83 ff 36             	cmp    edi,0x36
  1022aa:	0f 84 44 02 00 00    	je     1024f4 <dw_get_tag_string+0x3f4>
  1022b0:	83 ff 37             	cmp    edi,0x37
  1022b3:	0f 84 35 02 00 00    	je     1024ee <dw_get_tag_string+0x3ee>
  1022b9:	83 ff 38             	cmp    edi,0x38
  1022bc:	0f 84 26 02 00 00    	je     1024e8 <dw_get_tag_string+0x3e8>
  1022c2:	83 ff 39             	cmp    edi,0x39
  1022c5:	0f 84 17 02 00 00    	je     1024e2 <dw_get_tag_string+0x3e2>
  1022cb:	83 ff 3a             	cmp    edi,0x3a
  1022ce:	0f 84 08 02 00 00    	je     1024dc <dw_get_tag_string+0x3dc>
  1022d4:	83 ff 3b             	cmp    edi,0x3b
  1022d7:	0f 84 f9 01 00 00    	je     1024d6 <dw_get_tag_string+0x3d6>
  1022dd:	83 ff 3c             	cmp    edi,0x3c
  1022e0:	0f 84 ea 01 00 00    	je     1024d0 <dw_get_tag_string+0x3d0>
  1022e6:	83 ff 3d             	cmp    edi,0x3d
  1022e9:	0f 84 db 01 00 00    	je     1024ca <dw_get_tag_string+0x3ca>
  1022ef:	83 ff 3f             	cmp    edi,0x3f
  1022f2:	0f 84 cc 01 00 00    	je     1024c4 <dw_get_tag_string+0x3c4>
  1022f8:	83 ff 40             	cmp    edi,0x40
  1022fb:	0f 84 bd 01 00 00    	je     1024be <dw_get_tag_string+0x3be>
  102301:	83 ff 41             	cmp    edi,0x41
  102304:	0f 84 ae 01 00 00    	je     1024b8 <dw_get_tag_string+0x3b8>
  10230a:	83 ff 42             	cmp    edi,0x42
  10230d:	0f 84 9f 01 00 00    	je     1024b2 <dw_get_tag_string+0x3b2>
  102313:	83 ff 43             	cmp    edi,0x43
  102316:	0f 84 90 01 00 00    	je     1024ac <dw_get_tag_string+0x3ac>
  10231c:	81 ff 80 40 00 00    	cmp    edi,0x4080
  102322:	0f 84 7e 01 00 00    	je     1024a6 <dw_get_tag_string+0x3a6>
  102328:	81 ff ff ff 00 00    	cmp    edi,0xffff
  10232e:	ba b7 04 10 00       	mov    edx,0x1004b7
  102333:	b8 a8 04 10 00       	mov    eax,0x1004a8
  102338:	48 0f 45 c2          	cmovne rax,rdx
  10233c:	c3                   	ret    
  10233d:	0f 1f 00             	nop    DWORD PTR [rax]
  102340:	b8 4f 00 10 00       	mov    eax,0x10004f
  102345:	c3                   	ret    
  102346:	66 2e 0f 1f 84 00 00 	nop    WORD PTR cs:[rax+rax*1+0x0]
  10234d:	00 00 00 
  102350:	b8 18 00 10 00       	mov    eax,0x100018
  102355:	c3                   	ret    
  102356:	66 2e 0f 1f 84 00 00 	nop    WORD PTR cs:[rax+rax*1+0x0]
  10235d:	00 00 00 
  102360:	b8 2a 00 10 00       	mov    eax,0x10002a
  102365:	c3                   	ret    
  102366:	66 2e 0f 1f 84 00 00 	nop    WORD PTR cs:[rax+rax*1+0x0]
  10236d:	00 00 00 
  102370:	b8 3c 00 10 00       	mov    eax,0x10003c
  102375:	c3                   	ret    
  102376:	66 2e 0f 1f 84 00 00 	nop    WORD PTR cs:[rax+rax*1+0x0]
  10237d:	00 00 00 
  102380:	b8 67 00 10 00       	mov    eax,0x100067
  102385:	c3                   	ret    
  102386:	66 2e 0f 1f 84 00 00 	nop    WORD PTR cs:[rax+rax*1+0x0]
  10238d:	00 00 00 
  102390:	b8 7f 00 10 00       	mov    eax,0x10007f
  102395:	c3                   	ret    
  102396:	66 2e 0f 1f 84 00 00 	nop    WORD PTR cs:[rax+rax*1+0x0]
  10239d:	00 00 00 
  1023a0:	b8 9b 00 10 00       	mov    eax,0x10009b
  1023a5:	c3                   	ret    
  1023a6:	66 2e 0f 1f 84 00 00 	nop    WORD PTR cs:[rax+rax*1+0x0]
  1023ad:	00 00 00 
  1023b0:	b8 a8 00 10 00       	mov    eax,0x1000a8
  1023b5:	c3                   	ret    
  1023b6:	66 2e 0f 1f 84 00 00 	nop    WORD PTR cs:[rax+rax*1+0x0]
  1023bd:	00 00 00 
  1023c0:	b8 1c 01 10 00       	mov    eax,0x10011c
  1023c5:	c3                   	ret    
  1023c6:	66 2e 0f 1f 84 00 00 	nop    WORD PTR cs:[rax+rax*1+0x0]
  1023cd:	00 00 00 
  1023d0:	b8 bd 00 10 00       	mov    eax,0x1000bd
  1023d5:	c3                   	ret    
  1023d6:	66 2e 0f 1f 84 00 00 	nop    WORD PTR cs:[rax+rax*1+0x0]
  1023dd:	00 00 00 
  1023e0:	b8 cb 00 10 00       	mov    eax,0x1000cb
  1023e5:	c3                   	ret    
  1023e6:	66 2e 0f 1f 84 00 00 	nop    WORD PTR cs:[rax+rax*1+0x0]
  1023ed:	00 00 00 
  1023f0:	b8 df 00 10 00       	mov    eax,0x1000df
  1023f5:	c3                   	ret    
  1023f6:	66 2e 0f 1f 84 00 00 	nop    WORD PTR cs:[rax+rax*1+0x0]
  1023fd:	00 00 00 
  102400:	b8 f5 00 10 00       	mov    eax,0x1000f5
  102405:	c3                   	ret    
  102406:	66 2e 0f 1f 84 00 00 	nop    WORD PTR cs:[rax+rax*1+0x0]
  10240d:	00 00 00 
  102410:	b8 09 01 10 00       	mov    eax,0x100109
  102415:	c3                   	ret    
  102416:	b8 32 01 10 00       	mov    eax,0x100132
  10241b:	c3                   	ret    
  10241c:	b8 49 01 10 00       	mov    eax,0x100149
  102421:	c3                   	ret    
  102422:	b8 58 01 10 00       	mov    eax,0x100158
  102427:	c3                   	ret    
  102428:	b8 6a 01 10 00       	mov    eax,0x10016a
  10242d:	c3                   	ret    
  10242e:	b8 88 01 10 00       	mov    eax,0x100188
  102433:	c3                   	ret    
  102434:	b8 97 01 10 00       	mov    eax,0x100197
  102439:	c3                   	ret    
  10243a:	b8 ab 01 10 00       	mov    eax,0x1001ab
  10243f:	c3                   	ret    
  102440:	b8 c3 01 10 00       	mov    eax,0x1001c3
  102445:	c3                   	ret    
  102446:	b8 d6 01 10 00       	mov    eax,0x1001d6
  10244b:	c3                   	ret    
  10244c:	b8 f0 01 10 00       	mov    eax,0x1001f0
  102451:	c3                   	ret    
  102452:	b8 fe 01 10 00       	mov    eax,0x1001fe
  102457:	c3                   	ret    
  102458:	b8 18 02 10 00       	mov    eax,0x100218
  10245d:	c3                   	ret    
  10245e:	b8 28 02 10 00       	mov    eax,0x100228
  102463:	c3                   	ret    
  102464:	b8 3d 02 10 00       	mov    eax,0x10023d
  102469:	c3                   	ret    
  10246a:	b8 4e 02 10 00       	mov    eax,0x10024e
  10246f:	c3                   	ret    
  102470:	b8 68 02 10 00       	mov    eax,0x100268
  102475:	c3                   	ret    
  102476:	b8 79 02 10 00       	mov    eax,0x100279
  10247b:	c3                   	ret    
  10247c:	b8 8c 02 10 00       	mov    eax,0x10028c
  102481:	c3                   	ret    
  102482:	b8 9e 02 10 00       	mov    eax,0x10029e
  102487:	c3                   	ret    
  102488:	b8 ae 02 10 00       	mov    eax,0x1002ae
  10248d:	c3                   	ret    
  10248e:	b8 ef 02 10 00       	mov    eax,0x1002ef
  102493:	c3                   	ret    
  102494:	b8 df 02 10 00       	mov    eax,0x1002df
  102499:	c3                   	ret    
  10249a:	b8 d1 02 10 00       	mov    eax,0x1002d1
  10249f:	c3                   	ret    
  1024a0:	b8 c0 02 10 00       	mov    eax,0x1002c0
  1024a5:	c3                   	ret    
  1024a6:	b8 99 04 10 00       	mov    eax,0x100499
  1024ab:	c3                   	ret    
  1024ac:	b8 83 04 10 00       	mov    eax,0x100483
  1024b1:	c3                   	ret    
  1024b2:	b8 66 04 10 00       	mov    eax,0x100466
  1024b7:	c3                   	ret    
  1024b8:	b8 55 04 10 00       	mov    eax,0x100455
  1024bd:	c3                   	ret    
  1024be:	b8 42 04 10 00       	mov    eax,0x100442
  1024c3:	c3                   	ret    
  1024c4:	b8 31 04 10 00       	mov    eax,0x100431
  1024c9:	c3                   	ret    
  1024ca:	b8 1c 04 10 00       	mov    eax,0x10041c
  1024cf:	c3                   	ret    
  1024d0:	b8 08 04 10 00       	mov    eax,0x100408
  1024d5:	c3                   	ret    
  1024d6:	b8 f0 03 10 00       	mov    eax,0x1003f0
  1024db:	c3                   	ret    
  1024dc:	b8 d9 03 10 00       	mov    eax,0x1003d9
  1024e1:	c3                   	ret    
  1024e2:	b8 c8 03 10 00       	mov    eax,0x1003c8
  1024e7:	c3                   	ret    
  1024e8:	b8 b2 03 10 00       	mov    eax,0x1003b2
  1024ed:	c3                   	ret    
  1024ee:	b8 9d 03 10 00       	mov    eax,0x10039d
  1024f3:	c3                   	ret    
  1024f4:	b8 86 03 10 00       	mov    eax,0x100386
  1024f9:	c3                   	ret    
  1024fa:	b8 71 03 10 00       	mov    eax,0x100371
  1024ff:	c3                   	ret    
  102500:	b8 61 03 10 00       	mov    eax,0x100361
  102505:	c3                   	ret    
  102506:	b8 4d 03 10 00       	mov    eax,0x10034d
  10250b:	c3                   	ret    
  10250c:	b8 3c 03 10 00       	mov    eax,0x10033c
  102511:	c3                   	ret    
  102512:	b8 29 03 10 00       	mov    eax,0x100329
  102517:	c3                   	ret    
  102518:	b8 a8 10 10 00       	mov    eax,0x1010a8
  10251d:	c3                   	ret    
  10251e:	b8 88 10 10 00       	mov    eax,0x101088
  102523:	c3                   	ret    
  102524:	b8 17 03 10 00       	mov    eax,0x100317
  102529:	c3                   	ret    
  10252a:	b8 04 03 10 00       	mov    eax,0x100304
  10252f:	c3                   	ret    

0000000000102530 <dw_get_attrib_string>:
  102530:	83 ff 01             	cmp    edi,0x1
  102533:	0f 84 67 03 00 00    	je     1028a0 <dw_get_attrib_string+0x370>
  102539:	83 ff 02             	cmp    edi,0x2
  10253c:	0f 84 6e 03 00 00    	je     1028b0 <dw_get_attrib_string+0x380>
  102542:	83 ff 03             	cmp    edi,0x3
  102545:	0f 84 75 03 00 00    	je     1028c0 <dw_get_attrib_string+0x390>
  10254b:	83 ff 09             	cmp    edi,0x9
  10254e:	0f 84 3c 03 00 00    	je     102890 <dw_get_attrib_string+0x360>
  102554:	83 ff 0b             	cmp    edi,0xb
  102557:	0f 84 73 03 00 00    	je     1028d0 <dw_get_attrib_string+0x3a0>
  10255d:	83 ff 0c             	cmp    edi,0xc
  102560:	0f 84 7a 03 00 00    	je     1028e0 <dw_get_attrib_string+0x3b0>
  102566:	83 ff 0d             	cmp    edi,0xd
  102569:	0f 84 81 03 00 00    	je     1028f0 <dw_get_attrib_string+0x3c0>
  10256f:	83 ff 10             	cmp    edi,0x10
  102572:	0f 84 88 03 00 00    	je     102900 <dw_get_attrib_string+0x3d0>
  102578:	83 ff 11             	cmp    edi,0x11
  10257b:	0f 84 9f 03 00 00    	je     102920 <dw_get_attrib_string+0x3f0>
  102581:	83 ff 12             	cmp    edi,0x12
  102584:	0f 84 a6 03 00 00    	je     102930 <dw_get_attrib_string+0x400>
  10258a:	83 ff 13             	cmp    edi,0x13
  10258d:	0f 84 ad 03 00 00    	je     102940 <dw_get_attrib_string+0x410>
  102593:	83 ff 15             	cmp    edi,0x15
  102596:	0f 84 b4 03 00 00    	je     102950 <dw_get_attrib_string+0x420>
  10259c:	83 ff 16             	cmp    edi,0x16
  10259f:	0f 84 bb 03 00 00    	je     102960 <dw_get_attrib_string+0x430>
  1025a5:	83 ff 17             	cmp    edi,0x17
  1025a8:	0f 84 62 03 00 00    	je     102910 <dw_get_attrib_string+0x3e0>
  1025ae:	83 ff 18             	cmp    edi,0x18
  1025b1:	0f 84 af 03 00 00    	je     102966 <dw_get_attrib_string+0x436>
  1025b7:	83 ff 19             	cmp    edi,0x19
  1025ba:	0f 84 ac 03 00 00    	je     10296c <dw_get_attrib_string+0x43c>
  1025c0:	83 ff 1a             	cmp    edi,0x1a
  1025c3:	0f 84 a9 03 00 00    	je     102972 <dw_get_attrib_string+0x442>
  1025c9:	83 ff 1b             	cmp    edi,0x1b
  1025cc:	0f 84 a6 03 00 00    	je     102978 <dw_get_attrib_string+0x448>
  1025d2:	83 ff 1c             	cmp    edi,0x1c
  1025d5:	0f 84 a3 03 00 00    	je     10297e <dw_get_attrib_string+0x44e>
  1025db:	83 ff 1d             	cmp    edi,0x1d
  1025de:	0f 84 a0 03 00 00    	je     102984 <dw_get_attrib_string+0x454>
  1025e4:	83 ff 1e             	cmp    edi,0x1e
  1025e7:	0f 84 9d 03 00 00    	je     10298a <dw_get_attrib_string+0x45a>
  1025ed:	83 ff 20             	cmp    edi,0x20
  1025f0:	0f 84 9a 03 00 00    	je     102990 <dw_get_attrib_string+0x460>
  1025f6:	83 ff 21             	cmp    edi,0x21
  1025f9:	0f 84 97 03 00 00    	je     102996 <dw_get_attrib_string+0x466>
  1025ff:	83 ff 22             	cmp    edi,0x22
  102602:	0f 84 94 03 00 00    	je     10299c <dw_get_attrib_string+0x46c>
  102608:	83 ff 25             	cmp    edi,0x25
  10260b:	0f 84 91 03 00 00    	je     1029a2 <dw_get_attrib_string+0x472>
  102611:	83 ff 27             	cmp    edi,0x27
  102614:	0f 84 8e 03 00 00    	je     1029a8 <dw_get_attrib_string+0x478>
  10261a:	83 ff 2a             	cmp    edi,0x2a
  10261d:	0f 84 8b 03 00 00    	je     1029ae <dw_get_attrib_string+0x47e>
  102623:	83 ff 2c             	cmp    edi,0x2c
  102626:	0f 84 88 03 00 00    	je     1029b4 <dw_get_attrib_string+0x484>
  10262c:	83 ff 2e             	cmp    edi,0x2e
  10262f:	0f 84 85 03 00 00    	je     1029ba <dw_get_attrib_string+0x48a>
  102635:	83 ff 2f             	cmp    edi,0x2f
  102638:	0f 84 82 03 00 00    	je     1029c0 <dw_get_attrib_string+0x490>
  10263e:	83 ff 31             	cmp    edi,0x31
  102641:	0f 84 7f 03 00 00    	je     1029c6 <dw_get_attrib_string+0x496>
  102647:	83 ff 32             	cmp    edi,0x32
  10264a:	0f 84 7c 03 00 00    	je     1029cc <dw_get_attrib_string+0x49c>
  102650:	83 ff 33             	cmp    edi,0x33
  102653:	0f 84 79 03 00 00    	je     1029d2 <dw_get_attrib_string+0x4a2>
  102659:	83 ff 34             	cmp    edi,0x34
  10265c:	0f 84 76 03 00 00    	je     1029d8 <dw_get_attrib_string+0x4a8>
  102662:	83 ff 35             	cmp    edi,0x35
  102665:	0f 84 85 03 00 00    	je     1029f0 <dw_get_attrib_string+0x4c0>
  10266b:	83 ff 36             	cmp    edi,0x36
  10266e:	0f 84 76 03 00 00    	je     1029ea <dw_get_attrib_string+0x4ba>
  102674:	83 ff 37             	cmp    edi,0x37
  102677:	0f 84 67 03 00 00    	je     1029e4 <dw_get_attrib_string+0x4b4>
  10267d:	83 ff 38             	cmp    edi,0x38
  102680:	0f 84 58 03 00 00    	je     1029de <dw_get_attrib_string+0x4ae>
  102686:	83 ff 39             	cmp    edi,0x39
  102689:	0f 84 eb 03 00 00    	je     102a7a <dw_get_attrib_string+0x54a>
  10268f:	83 ff 3a             	cmp    edi,0x3a
  102692:	0f 84 dc 03 00 00    	je     102a74 <dw_get_attrib_string+0x544>
  102698:	83 ff 3b             	cmp    edi,0x3b
  10269b:	0f 84 cd 03 00 00    	je     102a6e <dw_get_attrib_string+0x53e>
  1026a1:	83 ff 3c             	cmp    edi,0x3c
  1026a4:	0f 84 be 03 00 00    	je     102a68 <dw_get_attrib_string+0x538>
  1026aa:	83 ff 3d             	cmp    edi,0x3d
  1026ad:	0f 84 af 03 00 00    	je     102a62 <dw_get_attrib_string+0x532>
  1026b3:	83 ff 3e             	cmp    edi,0x3e
  1026b6:	0f 84 a0 03 00 00    	je     102a5c <dw_get_attrib_string+0x52c>
  1026bc:	83 ff 3f             	cmp    edi,0x3f
  1026bf:	0f 84 91 03 00 00    	je     102a56 <dw_get_attrib_string+0x526>
  1026c5:	83 ff 40             	cmp    edi,0x40
  1026c8:	0f 84 82 03 00 00    	je     102a50 <dw_get_attrib_string+0x520>
  1026ce:	83 ff 41             	cmp    edi,0x41
  1026d1:	0f 84 63 04 00 00    	je     102b3a <dw_get_attrib_string+0x60a>
  1026d7:	83 ff 42             	cmp    edi,0x42
  1026da:	0f 84 54 04 00 00    	je     102b34 <dw_get_attrib_string+0x604>
  1026e0:	83 ff 43             	cmp    edi,0x43
  1026e3:	0f 84 45 04 00 00    	je     102b2e <dw_get_attrib_string+0x5fe>
  1026e9:	83 ff 44             	cmp    edi,0x44
  1026ec:	0f 84 36 04 00 00    	je     102b28 <dw_get_attrib_string+0x5f8>
  1026f2:	83 ff 45             	cmp    edi,0x45
  1026f5:	0f 84 27 04 00 00    	je     102b22 <dw_get_attrib_string+0x5f2>
  1026fb:	83 ff 46             	cmp    edi,0x46
  1026fe:	0f 84 18 04 00 00    	je     102b1c <dw_get_attrib_string+0x5ec>
  102704:	83 ff 47             	cmp    edi,0x47
  102707:	0f 84 09 04 00 00    	je     102b16 <dw_get_attrib_string+0x5e6>
  10270d:	83 ff 48             	cmp    edi,0x48
  102710:	0f 84 fa 03 00 00    	je     102b10 <dw_get_attrib_string+0x5e0>
  102716:	83 ff 49             	cmp    edi,0x49
  102719:	0f 84 eb 03 00 00    	je     102b0a <dw_get_attrib_string+0x5da>
  10271f:	83 ff 4a             	cmp    edi,0x4a
  102722:	0f 84 dc 03 00 00    	je     102b04 <dw_get_attrib_string+0x5d4>
  102728:	83 ff 4b             	cmp    edi,0x4b
  10272b:	0f 84 cd 03 00 00    	je     102afe <dw_get_attrib_string+0x5ce>
  102731:	83 ff 4c             	cmp    edi,0x4c
  102734:	0f 84 be 03 00 00    	je     102af8 <dw_get_attrib_string+0x5c8>
  10273a:	83 ff 4d             	cmp    edi,0x4d
  10273d:	0f 84 af 03 00 00    	je     102af2 <dw_get_attrib_string+0x5c2>
  102743:	83 ff 4e             	cmp    edi,0x4e
  102746:	0f 84 a0 03 00 00    	je     102aec <dw_get_attrib_string+0x5bc>
  10274c:	83 ff 4f             	cmp    edi,0x4f
  10274f:	0f 84 91 03 00 00    	je     102ae6 <dw_get_attrib_string+0x5b6>
  102755:	83 ff 50             	cmp    edi,0x50
  102758:	0f 84 82 03 00 00    	je     102ae0 <dw_get_attrib_string+0x5b0>
  10275e:	83 ff 51             	cmp    edi,0x51
  102761:	0f 84 73 03 00 00    	je     102ada <dw_get_attrib_string+0x5aa>
  102767:	83 ff 52             	cmp    edi,0x52
  10276a:	0f 84 64 03 00 00    	je     102ad4 <dw_get_attrib_string+0x5a4>
  102770:	83 ff 53             	cmp    edi,0x53
  102773:	0f 84 55 03 00 00    	je     102ace <dw_get_attrib_string+0x59e>
  102779:	83 ff 54             	cmp    edi,0x54
  10277c:	0f 84 46 03 00 00    	je     102ac8 <dw_get_attrib_string+0x598>
  102782:	83 ff 55             	cmp    edi,0x55
  102785:	0f 84 37 03 00 00    	je     102ac2 <dw_get_attrib_string+0x592>
  10278b:	83 ff 56             	cmp    edi,0x56
  10278e:	0f 84 28 03 00 00    	je     102abc <dw_get_attrib_string+0x58c>
  102794:	83 ff 57             	cmp    edi,0x57
  102797:	0f 84 19 03 00 00    	je     102ab6 <dw_get_attrib_string+0x586>
  10279d:	83 ff 58             	cmp    edi,0x58
  1027a0:	0f 84 0a 03 00 00    	je     102ab0 <dw_get_attrib_string+0x580>
  1027a6:	83 ff 59             	cmp    edi,0x59
  1027a9:	0f 84 fb 02 00 00    	je     102aaa <dw_get_attrib_string+0x57a>
  1027af:	83 ff 5a             	cmp    edi,0x5a
  1027b2:	0f 84 ec 02 00 00    	je     102aa4 <dw_get_attrib_string+0x574>
  1027b8:	83 ff 5b             	cmp    edi,0x5b
  1027bb:	0f 84 dd 02 00 00    	je     102a9e <dw_get_attrib_string+0x56e>
  1027c1:	83 ff 5c             	cmp    edi,0x5c
  1027c4:	0f 84 ce 02 00 00    	je     102a98 <dw_get_attrib_string+0x568>
  1027ca:	83 ff 5d             	cmp    edi,0x5d
  1027cd:	0f 84 bf 02 00 00    	je     102a92 <dw_get_attrib_string+0x562>
  1027d3:	83 ff 5e             	cmp    edi,0x5e
  1027d6:	0f 84 b0 02 00 00    	je     102a8c <dw_get_attrib_string+0x55c>
  1027dc:	83 ff 5f             	cmp    edi,0x5f
  1027df:	0f 84 a1 02 00 00    	je     102a86 <dw_get_attrib_string+0x556>
  1027e5:	83 ff 60             	cmp    edi,0x60
  1027e8:	0f 84 92 02 00 00    	je     102a80 <dw_get_attrib_string+0x550>
  1027ee:	83 ff 61             	cmp    edi,0x61
  1027f1:	0f 84 53 02 00 00    	je     102a4a <dw_get_attrib_string+0x51a>
  1027f7:	83 ff 62             	cmp    edi,0x62
  1027fa:	0f 84 44 02 00 00    	je     102a44 <dw_get_attrib_string+0x514>
  102800:	83 ff 63             	cmp    edi,0x63
  102803:	0f 84 35 02 00 00    	je     102a3e <dw_get_attrib_string+0x50e>
  102809:	83 ff 64             	cmp    edi,0x64
  10280c:	0f 84 26 02 00 00    	je     102a38 <dw_get_attrib_string+0x508>
  102812:	83 ff 65             	cmp    edi,0x65
  102815:	0f 84 17 02 00 00    	je     102a32 <dw_get_attrib_string+0x502>
  10281b:	83 ff 66             	cmp    edi,0x66
  10281e:	0f 84 08 02 00 00    	je     102a2c <dw_get_attrib_string+0x4fc>
  102824:	83 ff 67             	cmp    edi,0x67
  102827:	0f 84 f9 01 00 00    	je     102a26 <dw_get_attrib_string+0x4f6>
  10282d:	83 ff 68             	cmp    edi,0x68
  102830:	0f 84 ea 01 00 00    	je     102a20 <dw_get_attrib_string+0x4f0>
  102836:	83 ff 69             	cmp    edi,0x69
  102839:	0f 84 db 01 00 00    	je     102a1a <dw_get_attrib_string+0x4ea>
  10283f:	83 ff 6a             	cmp    edi,0x6a
  102842:	0f 84 cc 01 00 00    	je     102a14 <dw_get_attrib_string+0x4e4>
  102848:	83 ff 6b             	cmp    edi,0x6b
  10284b:	0f 84 bd 01 00 00    	je     102a0e <dw_get_attrib_string+0x4de>
  102851:	83 ff 6c             	cmp    edi,0x6c
  102854:	0f 84 ae 01 00 00    	je     102a08 <dw_get_attrib_string+0x4d8>
  10285a:	83 ff 6d             	cmp    edi,0x6d
  10285d:	0f 84 9f 01 00 00    	je     102a02 <dw_get_attrib_string+0x4d2>
  102863:	83 ff 6e             	cmp    edi,0x6e
  102866:	0f 84 90 01 00 00    	je     1029fc <dw_get_attrib_string+0x4cc>
  10286c:	81 ff 00 20 00 00    	cmp    edi,0x2000
  102872:	0f 84 7e 01 00 00    	je     1029f6 <dw_get_attrib_string+0x4c6>
  102878:	81 ff ff 3f 00 00    	cmp    edi,0x3fff
  10287e:	ba b7 04 10 00       	mov    edx,0x1004b7
  102883:	b8 04 0b 10 00       	mov    eax,0x100b04
  102888:	48 0f 45 c2          	cmovne rax,rdx
  10288c:	c3                   	ret    
  10288d:	0f 1f 00             	nop    DWORD PTR [rax]
  102890:	b8 ea 04 10 00       	mov    eax,0x1004ea
  102895:	c3                   	ret    
  102896:	66 2e 0f 1f 84 00 00 	nop    WORD PTR cs:[rax+rax*1+0x0]
  10289d:	00 00 00 
  1028a0:	b8 c2 04 10 00       	mov    eax,0x1004c2
  1028a5:	c3                   	ret    
  1028a6:	66 2e 0f 1f 84 00 00 	nop    WORD PTR cs:[rax+rax*1+0x0]
  1028ad:	00 00 00 
  1028b0:	b8 d0 04 10 00       	mov    eax,0x1004d0
  1028b5:	c3                   	ret    
  1028b6:	66 2e 0f 1f 84 00 00 	nop    WORD PTR cs:[rax+rax*1+0x0]
  1028bd:	00 00 00 
  1028c0:	b8 df 04 10 00       	mov    eax,0x1004df
  1028c5:	c3                   	ret    
  1028c6:	66 2e 0f 1f 84 00 00 	nop    WORD PTR cs:[rax+rax*1+0x0]
  1028cd:	00 00 00 
  1028d0:	b8 f9 04 10 00       	mov    eax,0x1004f9
  1028d5:	c3                   	ret    
  1028d6:	66 2e 0f 1f 84 00 00 	nop    WORD PTR cs:[rax+rax*1+0x0]
  1028dd:	00 00 00 
  1028e0:	b8 09 05 10 00       	mov    eax,0x100509
  1028e5:	c3                   	ret    
  1028e6:	66 2e 0f 1f 84 00 00 	nop    WORD PTR cs:[rax+rax*1+0x0]
  1028ed:	00 00 00 
  1028f0:	b8 1a 05 10 00       	mov    eax,0x10051a
  1028f5:	c3                   	ret    
  1028f6:	66 2e 0f 1f 84 00 00 	nop    WORD PTR cs:[rax+rax*1+0x0]
  1028fd:	00 00 00 
  102900:	b8 29 05 10 00       	mov    eax,0x100529
  102905:	c3                   	ret    
  102906:	66 2e 0f 1f 84 00 00 	nop    WORD PTR cs:[rax+rax*1+0x0]
  10290d:	00 00 00 
  102910:	b8 81 05 10 00       	mov    eax,0x100581
  102915:	c3                   	ret    
  102916:	66 2e 0f 1f 84 00 00 	nop    WORD PTR cs:[rax+rax*1+0x0]
  10291d:	00 00 00 
  102920:	b8 39 05 10 00       	mov    eax,0x100539
  102925:	c3                   	ret    
  102926:	66 2e 0f 1f 84 00 00 	nop    WORD PTR cs:[rax+rax*1+0x0]
  10292d:	00 00 00 
  102930:	b8 46 05 10 00       	mov    eax,0x100546
  102935:	c3                   	ret    
  102936:	66 2e 0f 1f 84 00 00 	nop    WORD PTR cs:[rax+rax*1+0x0]
  10293d:	00 00 00 
  102940:	b8 54 05 10 00       	mov    eax,0x100554
  102945:	c3                   	ret    
  102946:	66 2e 0f 1f 84 00 00 	nop    WORD PTR cs:[rax+rax*1+0x0]
  10294d:	00 00 00 
  102950:	b8 63 05 10 00       	mov    eax,0x100563
  102955:	c3                   	ret    
  102956:	66 2e 0f 1f 84 00 00 	nop    WORD PTR cs:[rax+rax*1+0x0]
  10295d:	00 00 00 
  102960:	b8 6f 05 10 00       	mov    eax,0x10056f
  102965:	c3                   	ret    
  102966:	b8 92 05 10 00       	mov    eax,0x100592
  10296b:	c3                   	ret    
  10296c:	b8 9f 05 10 00       	mov    eax,0x10059f
  102971:	c3                   	ret    
  102972:	b8 b3 05 10 00       	mov    eax,0x1005b3
  102977:	c3                   	ret    
  102978:	b8 ca 05 10 00       	mov    eax,0x1005ca
  10297d:	c3                   	ret    
  10297e:	b8 d9 05 10 00       	mov    eax,0x1005d9
  102983:	c3                   	ret    
  102984:	b8 eb 05 10 00       	mov    eax,0x1005eb
  102989:	c3                   	ret    
  10298a:	b8 01 06 10 00       	mov    eax,0x100601
  10298f:	c3                   	ret    
  102990:	b8 15 06 10 00       	mov    eax,0x100615
  102995:	c3                   	ret    
  102996:	b8 22 06 10 00       	mov    eax,0x100622
  10299b:	c3                   	ret    
  10299c:	b8 34 06 10 00       	mov    eax,0x100634
  1029a1:	c3                   	ret    
  1029a2:	b8 46 06 10 00       	mov    eax,0x100646
  1029a7:	c3                   	ret    
  1029a8:	b8 55 06 10 00       	mov    eax,0x100655
  1029ad:	c3                   	ret    
  1029ae:	b8 66 06 10 00       	mov    eax,0x100666
  1029b3:	c3                   	ret    
  1029b4:	b8 78 06 10 00       	mov    eax,0x100678
  1029b9:	c3                   	ret    
  1029ba:	b8 8a 06 10 00       	mov    eax,0x10068a
  1029bf:	c3                   	ret    
  1029c0:	b8 9b 06 10 00       	mov    eax,0x10069b
  1029c5:	c3                   	ret    
  1029c6:	b8 ad 06 10 00       	mov    eax,0x1006ad
  1029cb:	c3                   	ret    
  1029cc:	b8 c3 06 10 00       	mov    eax,0x1006c3
  1029d1:	c3                   	ret    
  1029d2:	b8 d7 06 10 00       	mov    eax,0x1006d7
  1029d7:	c3                   	ret    
  1029d8:	b8 eb 06 10 00       	mov    eax,0x1006eb
  1029dd:	c3                   	ret    
  1029de:	b8 32 07 10 00       	mov    eax,0x100732
  1029e3:	c3                   	ret    
  1029e4:	b8 26 07 10 00       	mov    eax,0x100726
  1029e9:	c3                   	ret    
  1029ea:	b8 0d 07 10 00       	mov    eax,0x10070d
  1029ef:	c3                   	ret    
  1029f0:	b8 fc 06 10 00       	mov    eax,0x1006fc
  1029f5:	c3                   	ret    
  1029f6:	b8 f6 0a 10 00       	mov    eax,0x100af6
  1029fb:	c3                   	ret    
  1029fc:	b8 e3 0a 10 00       	mov    eax,0x100ae3
  102a01:	c3                   	ret    
  102a02:	b8 d2 0a 10 00       	mov    eax,0x100ad2
  102a07:	c3                   	ret    
  102a08:	b8 c1 0a 10 00       	mov    eax,0x100ac1
  102a0d:	c3                   	ret    
  102a0e:	b8 ab 0a 10 00       	mov    eax,0x100aab
  102a13:	c3                   	ret    
  102a14:	b8 95 0a 10 00       	mov    eax,0x100a95
  102a19:	c3                   	ret    
  102a1a:	b8 85 0a 10 00       	mov    eax,0x100a85
  102a1f:	c3                   	ret    
  102a20:	b8 75 0a 10 00       	mov    eax,0x100a75
  102a25:	c3                   	ret    
  102a26:	b8 6a 0a 10 00       	mov    eax,0x100a6a
  102a2b:	c3                   	ret    
  102a2c:	b8 5a 0a 10 00       	mov    eax,0x100a5a
  102a31:	c3                   	ret    
  102a32:	b8 4a 0a 10 00       	mov    eax,0x100a4a
  102a37:	c3                   	ret    
  102a38:	b8 35 0a 10 00       	mov    eax,0x100a35
  102a3d:	c3                   	ret    
  102a3e:	b8 26 0a 10 00       	mov    eax,0x100a26
  102a43:	c3                   	ret    
  102a44:	b8 11 0a 10 00       	mov    eax,0x100a11
  102a49:	c3                   	ret    
  102a4a:	b8 03 0a 10 00       	mov    eax,0x100a03
  102a4f:	c3                   	ret    
  102a50:	b8 c0 07 10 00       	mov    eax,0x1007c0
  102a55:	c3                   	ret    
  102a56:	b8 b1 07 10 00       	mov    eax,0x1007b1
  102a5b:	c3                   	ret    
  102a5c:	b8 a2 07 10 00       	mov    eax,0x1007a2
  102a61:	c3                   	ret    
  102a62:	b8 91 07 10 00       	mov    eax,0x100791
  102a67:	c3                   	ret    
  102a68:	b8 7f 07 10 00       	mov    eax,0x10077f
  102a6d:	c3                   	ret    
  102a6e:	b8 6f 07 10 00       	mov    eax,0x10076f
  102a73:	c3                   	ret    
  102a74:	b8 5f 07 10 00       	mov    eax,0x10075f
  102a79:	c3                   	ret    
  102a7a:	b8 4d 07 10 00       	mov    eax,0x10074d
  102a7f:	c3                   	ret    
  102a80:	b8 ee 09 10 00       	mov    eax,0x1009ee
  102a85:	c3                   	ret    
  102a86:	b8 dc 09 10 00       	mov    eax,0x1009dc
  102a8b:	c3                   	ret    
  102a8c:	b8 c9 09 10 00       	mov    eax,0x1009c9
  102a91:	c3                   	ret    
  102a92:	b8 bd 09 10 00       	mov    eax,0x1009bd
  102a97:	c3                   	ret    
  102a98:	b8 a9 09 10 00       	mov    eax,0x1009a9
  102a9d:	c3                   	ret    
  102a9e:	b8 96 09 10 00       	mov    eax,0x100996
  102aa3:	c3                   	ret    
  102aa4:	b8 84 09 10 00       	mov    eax,0x100984
  102aa9:	c3                   	ret    
  102aaa:	b8 74 09 10 00       	mov    eax,0x100974
  102aaf:	c3                   	ret    
  102ab0:	b8 64 09 10 00       	mov    eax,0x100964
  102ab5:	c3                   	ret    
  102ab6:	b8 52 09 10 00       	mov    eax,0x100952
  102abb:	c3                   	ret    
  102abc:	b8 41 09 10 00       	mov    eax,0x100941
  102ac1:	c3                   	ret    
  102ac2:	b8 34 09 10 00       	mov    eax,0x100934
  102ac7:	c3                   	ret    
  102ac8:	b8 24 09 10 00       	mov    eax,0x100924
  102acd:	c3                   	ret    
  102ace:	b8 15 09 10 00       	mov    eax,0x100915
  102ad3:	c3                   	ret    
  102ad4:	b8 06 09 10 00       	mov    eax,0x100906
  102ad9:	c3                   	ret    
  102ada:	b8 f4 08 10 00       	mov    eax,0x1008f4
  102adf:	c3                   	ret    
  102ae0:	b8 e0 08 10 00       	mov    eax,0x1008e0
  102ae5:	c3                   	ret    
  102ae6:	b8 cf 08 10 00       	mov    eax,0x1008cf
  102aeb:	c3                   	ret    
  102aec:	b8 bf 08 10 00       	mov    eax,0x1008bf
  102af1:	c3                   	ret    
  102af2:	b8 a4 08 10 00       	mov    eax,0x1008a4
  102af7:	c3                   	ret    
  102af8:	b8 93 08 10 00       	mov    eax,0x100893
  102afd:	c3                   	ret    
  102afe:	b8 7a 08 10 00       	mov    eax,0x10087a
  102b03:	c3                   	ret    
  102b04:	b8 67 08 10 00       	mov    eax,0x100867
  102b09:	c3                   	ret    
  102b0a:	b8 5c 08 10 00       	mov    eax,0x10085c
  102b0f:	c3                   	ret    
  102b10:	b8 4a 08 10 00       	mov    eax,0x10084a
  102b15:	c3                   	ret    
  102b16:	b8 36 08 10 00       	mov    eax,0x100836
  102b1b:	c3                   	ret    
  102b1c:	b8 28 08 10 00       	mov    eax,0x100828
  102b21:	c3                   	ret    
  102b22:	b8 19 08 10 00       	mov    eax,0x100819
  102b27:	c3                   	ret    
  102b28:	b8 05 08 10 00       	mov    eax,0x100805
  102b2d:	c3                   	ret    
  102b2e:	b8 f4 07 10 00       	mov    eax,0x1007f4
  102b33:	c3                   	ret    
  102b34:	b8 de 07 10 00       	mov    eax,0x1007de
  102b39:	c3                   	ret    
  102b3a:	b8 d1 07 10 00       	mov    eax,0x1007d1
  102b3f:	c3                   	ret    

0000000000102b40 <dw_get_form_string>:
  102b40:	83 ff 01             	cmp    edi,0x1
  102b43:	0f 84 f7 00 00 00    	je     102c40 <dw_get_form_string+0x100>
  102b49:	83 ff 03             	cmp    edi,0x3
  102b4c:	0f 84 fe 00 00 00    	je     102c50 <dw_get_form_string+0x110>
  102b52:	83 ff 04             	cmp    edi,0x4
  102b55:	0f 84 05 01 00 00    	je     102c60 <dw_get_form_string+0x120>
  102b5b:	83 ff 05             	cmp    edi,0x5
  102b5e:	0f 84 cc 00 00 00    	je     102c30 <dw_get_form_string+0xf0>
  102b64:	83 ff 06             	cmp    edi,0x6
  102b67:	0f 84 03 01 00 00    	je     102c70 <dw_get_form_string+0x130>
  102b6d:	83 ff 07             	cmp    edi,0x7
  102b70:	0f 84 0a 01 00 00    	je     102c80 <dw_get_form_string+0x140>
  102b76:	83 ff 08             	cmp    edi,0x8
  102b79:	0f 84 11 01 00 00    	je     102c90 <dw_get_form_string+0x150>
  102b7f:	83 ff 09             	cmp    edi,0x9
  102b82:	0f 84 18 01 00 00    	je     102ca0 <dw_get_form_string+0x160>
  102b88:	83 ff 0a             	cmp    edi,0xa
  102b8b:	0f 84 2f 01 00 00    	je     102cc0 <dw_get_form_string+0x180>
  102b91:	83 ff 0b             	cmp    edi,0xb
  102b94:	0f 84 36 01 00 00    	je     102cd0 <dw_get_form_string+0x190>
  102b9a:	83 ff 0c             	cmp    edi,0xc
  102b9d:	0f 84 3d 01 00 00    	je     102ce0 <dw_get_form_string+0x1a0>
  102ba3:	83 ff 0d             	cmp    edi,0xd
  102ba6:	0f 84 44 01 00 00    	je     102cf0 <dw_get_form_string+0x1b0>
  102bac:	83 ff 0e             	cmp    edi,0xe
  102baf:	0f 84 4b 01 00 00    	je     102d00 <dw_get_form_string+0x1c0>
  102bb5:	83 ff 0f             	cmp    edi,0xf
  102bb8:	0f 84 f2 00 00 00    	je     102cb0 <dw_get_form_string+0x170>
  102bbe:	83 ff 10             	cmp    edi,0x10
  102bc1:	0f 84 3f 01 00 00    	je     102d06 <dw_get_form_string+0x1c6>
  102bc7:	83 ff 11             	cmp    edi,0x11
  102bca:	0f 84 3c 01 00 00    	je     102d0c <dw_get_form_string+0x1cc>
  102bd0:	83 ff 12             	cmp    edi,0x12
  102bd3:	0f 84 39 01 00 00    	je     102d12 <dw_get_form_string+0x1d2>
  102bd9:	83 ff 13             	cmp    edi,0x13
  102bdc:	0f 84 36 01 00 00    	je     102d18 <dw_get_form_string+0x1d8>
  102be2:	83 ff 14             	cmp    edi,0x14
  102be5:	0f 84 33 01 00 00    	je     102d1e <dw_get_form_string+0x1de>
  102beb:	83 ff 15             	cmp    edi,0x15
  102bee:	0f 84 30 01 00 00    	je     102d24 <dw_get_form_string+0x1e4>
  102bf4:	83 ff 16             	cmp    edi,0x16
  102bf7:	0f 84 2d 01 00 00    	je     102d2a <dw_get_form_string+0x1ea>
  102bfd:	83 ff 17             	cmp    edi,0x17
  102c00:	0f 84 2a 01 00 00    	je     102d30 <dw_get_form_string+0x1f0>
  102c06:	83 ff 18             	cmp    edi,0x18
  102c09:	0f 84 27 01 00 00    	je     102d36 <dw_get_form_string+0x1f6>
  102c0f:	83 ff 19             	cmp    edi,0x19
  102c12:	0f 84 24 01 00 00    	je     102d3c <dw_get_form_string+0x1fc>
  102c18:	83 ff 20             	cmp    edi,0x20
  102c1b:	ba b7 04 10 00       	mov    edx,0x1004b7
  102c20:	b8 77 0c 10 00       	mov    eax,0x100c77
  102c25:	48 0f 45 c2          	cmovne rax,rdx
  102c29:	c3                   	ret    
  102c2a:	66 0f 1f 44 00 00    	nop    WORD PTR [rax+rax*1+0x0]
  102c30:	b8 3d 0b 10 00       	mov    eax,0x100b3d
  102c35:	c3                   	ret    
  102c36:	66 2e 0f 1f 84 00 00 	nop    WORD PTR cs:[rax+rax*1+0x0]
  102c3d:	00 00 00 
  102c40:	b8 12 0b 10 00       	mov    eax,0x100b12
  102c45:	c3                   	ret    
  102c46:	66 2e 0f 1f 84 00 00 	nop    WORD PTR cs:[rax+rax*1+0x0]
  102c4d:	00 00 00 
  102c50:	b8 1f 0b 10 00       	mov    eax,0x100b1f
  102c55:	c3                   	ret    
  102c56:	66 2e 0f 1f 84 00 00 	nop    WORD PTR cs:[rax+rax*1+0x0]
  102c5d:	00 00 00 
  102c60:	b8 2e 0b 10 00       	mov    eax,0x100b2e
  102c65:	c3                   	ret    
  102c66:	66 2e 0f 1f 84 00 00 	nop    WORD PTR cs:[rax+rax*1+0x0]
  102c6d:	00 00 00 
  102c70:	b8 4b 0b 10 00       	mov    eax,0x100b4b
  102c75:	c3                   	ret    
  102c76:	66 2e 0f 1f 84 00 00 	nop    WORD PTR cs:[rax+rax*1+0x0]
  102c7d:	00 00 00 
  102c80:	b8 59 0b 10 00       	mov    eax,0x100b59
  102c85:	c3                   	ret    
  102c86:	66 2e 0f 1f 84 00 00 	nop    WORD PTR cs:[rax+rax*1+0x0]
  102c8d:	00 00 00 
  102c90:	b8 67 0b 10 00       	mov    eax,0x100b67
  102c95:	c3                   	ret    
  102c96:	66 2e 0f 1f 84 00 00 	nop    WORD PTR cs:[rax+rax*1+0x0]
  102c9d:	00 00 00 
  102ca0:	b8 76 0b 10 00       	mov    eax,0x100b76
  102ca5:	c3                   	ret    
  102ca6:	66 2e 0f 1f 84 00 00 	nop    WORD PTR cs:[rax+rax*1+0x0]
  102cad:	00 00 00 
  102cb0:	b8 c9 0b 10 00       	mov    eax,0x100bc9
  102cb5:	c3                   	ret    
  102cb6:	66 2e 0f 1f 84 00 00 	nop    WORD PTR cs:[rax+rax*1+0x0]
  102cbd:	00 00 00 
  102cc0:	b8 84 0b 10 00       	mov    eax,0x100b84
  102cc5:	c3                   	ret    
  102cc6:	66 2e 0f 1f 84 00 00 	nop    WORD PTR cs:[rax+rax*1+0x0]
  102ccd:	00 00 00 
  102cd0:	b8 93 0b 10 00       	mov    eax,0x100b93
  102cd5:	c3                   	ret    
  102cd6:	66 2e 0f 1f 84 00 00 	nop    WORD PTR cs:[rax+rax*1+0x0]
  102cdd:	00 00 00 
  102ce0:	b8 a1 0b 10 00       	mov    eax,0x100ba1
  102ce5:	c3                   	ret    
  102ce6:	66 2e 0f 1f 84 00 00 	nop    WORD PTR cs:[rax+rax*1+0x0]
  102ced:	00 00 00 
  102cf0:	b8 ae 0b 10 00       	mov    eax,0x100bae
  102cf5:	c3                   	ret    
  102cf6:	66 2e 0f 1f 84 00 00 	nop    WORD PTR cs:[rax+rax*1+0x0]
  102cfd:	00 00 00 
  102d00:	b8 bc 0b 10 00       	mov    eax,0x100bbc
  102d05:	c3                   	ret    
  102d06:	b8 d7 0b 10 00       	mov    eax,0x100bd7
  102d0b:	c3                   	ret    
  102d0c:	b8 e8 0b 10 00       	mov    eax,0x100be8
  102d11:	c3                   	ret    
  102d12:	b8 f5 0b 10 00       	mov    eax,0x100bf5
  102d17:	c3                   	ret    
  102d18:	b8 02 0c 10 00       	mov    eax,0x100c02
  102d1d:	c3                   	ret    
  102d1e:	b8 0f 0c 10 00       	mov    eax,0x100c0f
  102d23:	c3                   	ret    
  102d24:	b8 1c 0c 10 00       	mov    eax,0x100c1c
  102d29:	c3                   	ret    
  102d2a:	b8 2e 0c 10 00       	mov    eax,0x100c2e
  102d2f:	c3                   	ret    
  102d30:	b8 3f 0c 10 00       	mov    eax,0x100c3f
  102d35:	c3                   	ret    
  102d36:	b8 52 0c 10 00       	mov    eax,0x100c52
  102d3b:	c3                   	ret    
  102d3c:	b8 62 0c 10 00       	mov    eax,0x100c62
  102d41:	c3                   	ret    
  102d42:	0f 1f 40 00          	nop    DWORD PTR [rax+0x0]
  102d46:	66 2e 0f 1f 84 00 00 	nop    WORD PTR cs:[rax+rax*1+0x0]
  102d4d:	00 00 00 

0000000000102d50 <klog_write_fmt>:
  102d50:	41 55                	push   r13
  102d52:	41 54                	push   r12
  102d54:	55                   	push   rbp
  102d55:	53                   	push   rbx
  102d56:	48 83 ec 50          	sub    rsp,0x50
  102d5a:	80 3d ff cf 00 00 00 	cmp    BYTE PTR [rip+0xcfff],0x0        # 10fd60 <globals+0x8540>
  102d61:	48 89 54 24 30       	mov    QWORD PTR [rsp+0x30],rdx
  102d66:	48 89 4c 24 38       	mov    QWORD PTR [rsp+0x38],rcx
  102d6b:	4c 89 44 24 40       	mov    QWORD PTR [rsp+0x40],r8
  102d70:	4c 89 4c 24 48       	mov    QWORD PTR [rsp+0x48],r9
  102d75:	74 11                	je     102d88 <klog_write_fmt+0x38>
  102d77:	48 83 c4 50          	add    rsp,0x50
  102d7b:	5b                   	pop    rbx
  102d7c:	5d                   	pop    rbp
  102d7d:	41 5c                	pop    r12
  102d7f:	41 5d                	pop    r13
  102d81:	c3                   	ret    
  102d82:	66 0f 1f 44 00 00    	nop    WORD PTR [rax+rax*1+0x0]
  102d88:	48 8d 97 20 85 00 00 	lea    rdx,[rdi+0x8520]
  102d8f:	45 31 c0             	xor    r8d,r8d
  102d92:	b9 01 00 00 00       	mov    ecx,0x1
  102d97:	66 0f 1f 84 00 00 00 	nop    WORD PTR [rax+rax*1+0x0]
  102d9e:	00 00 
  102da0:	44 89 c0             	mov    eax,r8d
  102da3:	f0 0f b1 0a          	lock cmpxchg DWORD PTR [rdx],ecx
  102da7:	75 f7                	jne    102da0 <klog_write_fmt+0x50>
  102da9:	0f ae f0             	mfence 
  102dac:	48 8b 87 00 84 00 00 	mov    rax,QWORD PTR [rdi+0x8400]
  102db3:	48 83 87 10 84 00 00 	add    QWORD PTR [rdi+0x8410],0x1
  102dba:	01 
  102dbb:	44 0f b6 d8          	movzx  r11d,al
  102dbf:	48 83 c0 01          	add    rax,0x1
  102dc3:	48 89 87 00 84 00 00 	mov    QWORD PTR [rdi+0x8400],rax
  102dca:	48 8b 87 08 84 00 00 	mov    rax,QWORD PTR [rdi+0x8408]
  102dd1:	48 3d ff 00 00 00    	cmp    rax,0xff
  102dd7:	77 0b                	ja     102de4 <klog_write_fmt+0x94>
  102dd9:	48 83 c0 01          	add    rax,0x1
  102ddd:	48 89 87 08 84 00 00 	mov    QWORD PTR [rdi+0x8408],rax
  102de4:	48 8d 44 24 78       	lea    rax,[rsp+0x78]
  102de9:	0f ae f0             	mfence 
  102dec:	c7 87 20 85 00 00 00 	mov    DWORD PTR [rdi+0x8520],0x0
  102df3:	00 00 00 
  102df6:	c7 44 24 08 10 00 00 	mov    DWORD PTR [rsp+0x8],0x10
  102dfd:	00 
  102dfe:	45 31 c9             	xor    r9d,r9d
  102e01:	45 31 c0             	xor    r8d,r8d
  102e04:	48 89 44 24 10       	mov    QWORD PTR [rsp+0x10],rax
  102e09:	48 8d 44 24 20       	lea    rax,[rsp+0x20]
  102e0e:	48 89 44 24 18       	mov    QWORD PTR [rsp+0x18],rax
  102e13:	4c 89 d8             	mov    rax,r11
  102e16:	48 c1 e0 05          	shl    rax,0x5
  102e1a:	4c 01 d8             	add    rax,r11
  102e1d:	4c 8d 14 87          	lea    r10,[rdi+rax*4]
  102e21:	0f b6 06             	movzx  eax,BYTE PTR [rsi]
  102e24:	84 c0                	test   al,al
  102e26:	74 72                	je     102e9a <klog_write_fmt+0x14a>
  102e28:	3c 25                	cmp    al,0x25
  102e2a:	4c 89 c9             	mov    rcx,r9
  102e2d:	75 0d                	jne    102e3c <klog_write_fmt+0xec>
  102e2f:	e9 04 01 00 00       	jmp    102f38 <klog_write_fmt+0x1e8>
  102e34:	0f 1f 40 00          	nop    DWORD PTR [rax+0x0]
  102e38:	84 c0                	test   al,al
  102e3a:	74 10                	je     102e4c <klog_write_fmt+0xfc>
  102e3c:	48 83 c1 01          	add    rcx,0x1
  102e40:	0f b6 04 0e          	movzx  eax,BYTE PTR [rsi+rcx*1]
  102e44:	4c 8d 24 0e          	lea    r12,[rsi+rcx*1]
  102e48:	3c 25                	cmp    al,0x25
  102e4a:	75 ec                	jne    102e38 <klog_write_fmt+0xe8>
  102e4c:	48 89 cb             	mov    rbx,rcx
  102e4f:	4c 29 cb             	sub    rbx,r9
  102e52:	4d 8d 2c 18          	lea    r13,[r8+rbx*1]
  102e56:	49 81 fd 80 00 00 00 	cmp    r13,0x80
  102e5d:	77 3b                	ja     102e9a <klog_write_fmt+0x14a>
  102e5f:	48 85 db             	test   rbx,rbx
  102e62:	0f 84 fe 00 00 00    	je     102f66 <klog_write_fmt+0x216>
  102e68:	4b 8d 2c 02          	lea    rbp,[r10+r8*1]
  102e6c:	31 c0                	xor    eax,eax
  102e6e:	49 01 f1             	add    r9,rsi
  102e71:	0f 1f 80 00 00 00 00 	nop    DWORD PTR [rax+0x0]
  102e78:	45 0f b6 04 01       	movzx  r8d,BYTE PTR [r9+rax*1]
  102e7d:	44 88 44 05 00       	mov    BYTE PTR [rbp+rax*1+0x0],r8b
  102e82:	48 83 c0 01          	add    rax,0x1
  102e86:	48 39 c3             	cmp    rbx,rax
  102e89:	75 ed                	jne    102e78 <klog_write_fmt+0x128>
  102e8b:	41 0f b6 04 24       	movzx  eax,BYTE PTR [r12]
  102e90:	49 89 c9             	mov    r9,rcx
  102e93:	4d 89 e8             	mov    r8,r13
  102e96:	84 c0                	test   al,al
  102e98:	75 8e                	jne    102e28 <klog_write_fmt+0xd8>
  102e9a:	4c 89 d8             	mov    rax,r11
  102e9d:	31 f6                	xor    esi,esi
  102e9f:	b9 01 00 00 00       	mov    ecx,0x1
  102ea4:	48 c1 e0 05          	shl    rax,0x5
  102ea8:	4c 01 d8             	add    rax,r11
  102eab:	44 89 84 87 80 00 00 	mov    DWORD PTR [rdi+rax*4+0x80],r8d
  102eb2:	00 
  102eb3:	0f 1f 44 00 00       	nop    DWORD PTR [rax+rax*1+0x0]
  102eb8:	89 f0                	mov    eax,esi
  102eba:	f0 0f b1 0a          	lock cmpxchg DWORD PTR [rdx],ecx
  102ebe:	75 f8                	jne    102eb8 <klog_write_fmt+0x168>
  102ec0:	4c 89 d8             	mov    rax,r11
  102ec3:	0f ae f0             	mfence 
  102ec6:	48 c1 e0 05          	shl    rax,0x5
  102eca:	49 01 c3             	add    r11,rax
  102ecd:	46 8b 84 9f 80 00 00 	mov    r8d,DWORD PTR [rdi+r11*4+0x80]
  102ed4:	00 
  102ed5:	4d 85 c0             	test   r8,r8
  102ed8:	74 2f                	je     102f09 <klog_write_fmt+0x1b9>
  102eda:	31 f6                	xor    esi,esi
  102edc:	b9 fd 03 00 00       	mov    ecx,0x3fd
  102ee1:	41 b9 f8 03 00 00    	mov    r9d,0x3f8
  102ee7:	66 0f 1f 84 00 00 00 	nop    WORD PTR [rax+rax*1+0x0]
  102eee:	00 00 
  102ef0:	89 ca                	mov    edx,ecx
  102ef2:	ec                   	in     al,dx
  102ef3:	a8 20                	test   al,0x20
  102ef5:	74 f9                	je     102ef0 <klog_write_fmt+0x1a0>
  102ef7:	41 0f b6 04 32       	movzx  eax,BYTE PTR [r10+rsi*1]
  102efc:	44 89 ca             	mov    edx,r9d
  102eff:	ee                   	out    dx,al
  102f00:	48 83 c6 01          	add    rsi,0x1
  102f04:	49 39 f0             	cmp    r8,rsi
  102f07:	75 e7                	jne    102ef0 <klog_write_fmt+0x1a0>
  102f09:	ba fd 03 00 00       	mov    edx,0x3fd
  102f0e:	66 90                	xchg   ax,ax
  102f10:	ec                   	in     al,dx
  102f11:	a8 20                	test   al,0x20
  102f13:	74 fb                	je     102f10 <klog_write_fmt+0x1c0>
  102f15:	ba f8 03 00 00       	mov    edx,0x3f8
  102f1a:	b8 0a 00 00 00       	mov    eax,0xa
  102f1f:	ee                   	out    dx,al
  102f20:	0f ae f0             	mfence 
  102f23:	c7 87 20 85 00 00 00 	mov    DWORD PTR [rdi+0x8520],0x0
  102f2a:	00 00 00 
  102f2d:	48 83 c4 50          	add    rsp,0x50
  102f31:	5b                   	pop    rbx
  102f32:	5d                   	pop    rbp
  102f33:	41 5c                	pop    r12
  102f35:	41 5d                	pop    r13
  102f37:	c3                   	ret    
  102f38:	42 0f b6 44 0e 01    	movzx  eax,BYTE PTR [rsi+r9*1+0x1]
  102f3e:	49 8d 49 01          	lea    rcx,[r9+0x1]
  102f42:	3c 6c                	cmp    al,0x6c
  102f44:	74 2b                	je     102f71 <klog_write_fmt+0x221>
  102f46:	3c 75                	cmp    al,0x75
  102f48:	0f 84 2a 01 00 00    	je     103078 <klog_write_fmt+0x328>
  102f4e:	3c 73                	cmp    al,0x73
  102f50:	0f 84 89 02 00 00    	je     1031df <klog_write_fmt+0x48f>
  102f56:	3c 2e                	cmp    al,0x2e
  102f58:	0f 84 92 00 00 00    	je     102ff0 <klog_write_fmt+0x2a0>
  102f5e:	49 89 c9             	mov    r9,rcx
  102f61:	e9 be fe ff ff       	jmp    102e24 <klog_write_fmt+0xd4>
  102f66:	49 89 c9             	mov    r9,rcx
  102f69:	4d 89 e8             	mov    r8,r13
  102f6c:	e9 b3 fe ff ff       	jmp    102e24 <klog_write_fmt+0xd4>
  102f71:	42 0f b6 44 0e 02    	movzx  eax,BYTE PTR [rsi+r9*1+0x2]
  102f77:	49 8d 49 02          	lea    rcx,[r9+0x2]
  102f7b:	3c 75                	cmp    al,0x75
  102f7d:	75 df                	jne    102f5e <klog_write_fmt+0x20e>
  102f7f:	8b 4c 24 08          	mov    ecx,DWORD PTR [rsp+0x8]
  102f83:	83 f9 2f             	cmp    ecx,0x2f
  102f86:	0f 87 15 02 00 00    	ja     1031a1 <klog_write_fmt+0x451>
  102f8c:	48 8d 5c 24 20       	lea    rbx,[rsp+0x20]
  102f91:	89 c8                	mov    eax,ecx
  102f93:	83 c1 08             	add    ecx,0x8
  102f96:	89 4c 24 08          	mov    DWORD PTR [rsp+0x8],ecx
  102f9a:	48 01 d8             	add    rax,rbx
  102f9d:	48 8b 28             	mov    rbp,QWORD PTR [rax]
  102fa0:	49 8d 40 12          	lea    rax,[r8+0x12]
  102fa4:	48 3d 80 00 00 00    	cmp    rax,0x80
  102faa:	0f 87 ea fe ff ff    	ja     102e9a <klog_write_fmt+0x14a>
  102fb0:	43 c6 04 02 30       	mov    BYTE PTR [r10+r8*1],0x30
  102fb5:	43 c6 44 02 01 78    	mov    BYTE PTR [r10+r8*1+0x1],0x78
  102fbb:	31 c9                	xor    ecx,ecx
  102fbd:	49 83 c0 02          	add    r8,0x2
  102fc1:	48 85 ed             	test   rbp,rbp
  102fc4:	4b 8d 04 02          	lea    rax,[r10+r8*1]
  102fc8:	0f 85 7d 01 00 00    	jne    10314b <klog_write_fmt+0x3fb>
  102fce:	c6 00 30             	mov    BYTE PTR [rax],0x30
  102fd1:	bb 01 00 00 00       	mov    ebx,0x1
  102fd6:	49 83 c1 03          	add    r9,0x3
  102fda:	49 01 d8             	add    r8,rbx
  102fdd:	42 0f b6 04 0e       	movzx  eax,BYTE PTR [rsi+r9*1]
  102fe2:	e9 3d fe ff ff       	jmp    102e24 <klog_write_fmt+0xd4>
  102fe7:	66 0f 1f 84 00 00 00 	nop    WORD PTR [rax+rax*1+0x0]
  102fee:	00 00 
  102ff0:	42 0f b6 44 0e 02    	movzx  eax,BYTE PTR [rsi+r9*1+0x2]
  102ff6:	49 8d 49 02          	lea    rcx,[r9+0x2]
  102ffa:	3c 2a                	cmp    al,0x2a
  102ffc:	0f 85 5c ff ff ff    	jne    102f5e <klog_write_fmt+0x20e>
  103002:	8b 4c 24 08          	mov    ecx,DWORD PTR [rsp+0x8]
  103006:	83 f9 2f             	cmp    ecx,0x2f
  103009:	0f 87 c2 01 00 00    	ja     1031d1 <klog_write_fmt+0x481>
  10300f:	8d 41 08             	lea    eax,[rcx+0x8]
  103012:	89 cb                	mov    ebx,ecx
  103014:	48 8b 5c 1c 20       	mov    rbx,QWORD PTR [rsp+rbx*1+0x20]
  103019:	83 f8 2f             	cmp    eax,0x2f
  10301c:	89 44 24 08          	mov    DWORD PTR [rsp+0x8],eax
  103020:	0f 87 98 01 00 00    	ja     1031be <klog_write_fmt+0x46e>
  103026:	48 8d 6c 24 20       	lea    rbp,[rsp+0x20]
  10302b:	83 c1 10             	add    ecx,0x10
  10302e:	89 4c 24 08          	mov    DWORD PTR [rsp+0x8],ecx
  103032:	48 01 e8             	add    rax,rbp
  103035:	49 8d 0c 18          	lea    rcx,[r8+rbx*1]
  103039:	4c 8b 20             	mov    r12,QWORD PTR [rax]
  10303c:	48 81 f9 80 00 00 00 	cmp    rcx,0x80
  103043:	0f 87 51 fe ff ff    	ja     102e9a <klog_write_fmt+0x14a>
  103049:	31 c0                	xor    eax,eax
  10304b:	48 85 db             	test   rbx,rbx
  10304e:	4b 8d 2c 02          	lea    rbp,[r10+r8*1]
  103052:	74 13                	je     103067 <klog_write_fmt+0x317>
  103054:	46 0f b6 04 20       	movzx  r8d,BYTE PTR [rax+r12*1]
  103059:	44 88 44 05 00       	mov    BYTE PTR [rbp+rax*1+0x0],r8b
  10305e:	48 83 c0 01          	add    rax,0x1
  103062:	48 39 d8             	cmp    rax,rbx
  103065:	75 ed                	jne    103054 <klog_write_fmt+0x304>
  103067:	49 83 c1 04          	add    r9,0x4
  10306b:	49 89 c8             	mov    r8,rcx
  10306e:	42 0f b6 04 0e       	movzx  eax,BYTE PTR [rsi+r9*1]
  103073:	e9 ac fd ff ff       	jmp    102e24 <klog_write_fmt+0xd4>
  103078:	8b 4c 24 08          	mov    ecx,DWORD PTR [rsp+0x8]
  10307c:	83 f9 2f             	cmp    ecx,0x2f
  10307f:	0f 87 ac 00 00 00    	ja     103131 <klog_write_fmt+0x3e1>
  103085:	48 8d 5c 24 20       	lea    rbx,[rsp+0x20]
  10308a:	89 c8                	mov    eax,ecx
  10308c:	83 c1 08             	add    ecx,0x8
  10308f:	89 4c 24 08          	mov    DWORD PTR [rsp+0x8],ecx
  103093:	48 01 d8             	add    rax,rbx
  103096:	8b 28                	mov    ebp,DWORD PTR [rax]
  103098:	49 8d 40 0a          	lea    rax,[r8+0xa]
  10309c:	48 3d 80 00 00 00    	cmp    rax,0x80
  1030a2:	0f 87 f2 fd ff ff    	ja     102e9a <klog_write_fmt+0x14a>
  1030a8:	43 c6 04 02 30       	mov    BYTE PTR [r10+r8*1],0x30
  1030ad:	43 c6 44 02 01 78    	mov    BYTE PTR [r10+r8*1+0x1],0x78
  1030b3:	31 c9                	xor    ecx,ecx
  1030b5:	49 83 c0 02          	add    r8,0x2
  1030b9:	48 85 ed             	test   rbp,rbp
  1030bc:	4b 8d 04 02          	lea    rax,[r10+r8*1]
  1030c0:	75 1c                	jne    1030de <klog_write_fmt+0x38e>
  1030c2:	c6 00 30             	mov    BYTE PTR [rax],0x30
  1030c5:	bb 01 00 00 00       	mov    ebx,0x1
  1030ca:	49 83 c1 02          	add    r9,0x2
  1030ce:	49 01 d8             	add    r8,rbx
  1030d1:	42 0f b6 04 0e       	movzx  eax,BYTE PTR [rsi+r9*1]
  1030d6:	e9 49 fd ff ff       	jmp    102e24 <klog_write_fmt+0xd4>
  1030db:	48 89 d9             	mov    rcx,rbx
  1030de:	49 89 ec             	mov    r12,rbp
  1030e1:	48 8d 59 01          	lea    rbx,[rcx+0x1]
  1030e5:	48 c1 ed 04          	shr    rbp,0x4
  1030e9:	41 83 e4 0f          	and    r12d,0xf
  1030ed:	48 85 ed             	test   rbp,rbp
  1030f0:	45 0f b6 a4 24 00 15 	movzx  r12d,BYTE PTR [r12+0x101500]
  1030f7:	10 00 
  1030f9:	44 88 64 18 ff       	mov    BYTE PTR [rax+rbx*1-0x1],r12b
  1030fe:	75 db                	jne    1030db <klog_write_fmt+0x38b>
  103100:	48 89 dd             	mov    rbp,rbx
  103103:	48 d1 ed             	shr    rbp,1
  103106:	0f 84 a8 00 00 00    	je     1031b4 <klog_write_fmt+0x464>
  10310c:	48 01 c1             	add    rcx,rax
  10310f:	48 01 c5             	add    rbp,rax
  103112:	44 0f b6 29          	movzx  r13d,BYTE PTR [rcx]
  103116:	44 0f b6 20          	movzx  r12d,BYTE PTR [rax]
  10311a:	48 83 c0 01          	add    rax,0x1
  10311e:	48 83 e9 01          	sub    rcx,0x1
  103122:	44 88 68 ff          	mov    BYTE PTR [rax-0x1],r13b
  103126:	44 88 61 01          	mov    BYTE PTR [rcx+0x1],r12b
  10312a:	48 39 c5             	cmp    rbp,rax
  10312d:	75 e3                	jne    103112 <klog_write_fmt+0x3c2>
  10312f:	eb 99                	jmp    1030ca <klog_write_fmt+0x37a>
  103131:	48 8b 44 24 10       	mov    rax,QWORD PTR [rsp+0x10]
  103136:	48 8d 48 08          	lea    rcx,[rax+0x8]
  10313a:	48 89 4c 24 10       	mov    QWORD PTR [rsp+0x10],rcx
  10313f:	e9 52 ff ff ff       	jmp    103096 <klog_write_fmt+0x346>
  103144:	0f 1f 40 00          	nop    DWORD PTR [rax+0x0]
  103148:	48 89 d9             	mov    rcx,rbx
  10314b:	49 89 ec             	mov    r12,rbp
  10314e:	48 8d 59 01          	lea    rbx,[rcx+0x1]
  103152:	48 c1 ed 04          	shr    rbp,0x4
  103156:	41 83 e4 0f          	and    r12d,0xf
  10315a:	48 85 ed             	test   rbp,rbp
  10315d:	45 0f b6 a4 24 00 15 	movzx  r12d,BYTE PTR [r12+0x101500]
  103164:	10 00 
  103166:	44 88 64 18 ff       	mov    BYTE PTR [rax+rbx*1-0x1],r12b
  10316b:	75 db                	jne    103148 <klog_write_fmt+0x3f8>
  10316d:	48 89 dd             	mov    rbp,rbx
  103170:	48 d1 ed             	shr    rbp,1
  103173:	0f 84 0a 01 00 00    	je     103283 <klog_write_fmt+0x533>
  103179:	48 01 c1             	add    rcx,rax
  10317c:	48 01 c5             	add    rbp,rax
  10317f:	44 0f b6 29          	movzx  r13d,BYTE PTR [rcx]
  103183:	44 0f b6 20          	movzx  r12d,BYTE PTR [rax]
  103187:	48 83 c0 01          	add    rax,0x1
  10318b:	48 83 e9 01          	sub    rcx,0x1
  10318f:	44 88 68 ff          	mov    BYTE PTR [rax-0x1],r13b
  103193:	44 88 61 01          	mov    BYTE PTR [rcx+0x1],r12b
  103197:	48 39 e8             	cmp    rax,rbp
  10319a:	75 e3                	jne    10317f <klog_write_fmt+0x42f>
  10319c:	e9 35 fe ff ff       	jmp    102fd6 <klog_write_fmt+0x286>
  1031a1:	48 8b 44 24 10       	mov    rax,QWORD PTR [rsp+0x10]
  1031a6:	48 8d 48 08          	lea    rcx,[rax+0x8]
  1031aa:	48 89 4c 24 10       	mov    QWORD PTR [rsp+0x10],rcx
  1031af:	e9 e9 fd ff ff       	jmp    102f9d <klog_write_fmt+0x24d>
  1031b4:	bb 01 00 00 00       	mov    ebx,0x1
  1031b9:	e9 0c ff ff ff       	jmp    1030ca <klog_write_fmt+0x37a>
  1031be:	48 8b 44 24 10       	mov    rax,QWORD PTR [rsp+0x10]
  1031c3:	48 8d 48 08          	lea    rcx,[rax+0x8]
  1031c7:	48 89 4c 24 10       	mov    QWORD PTR [rsp+0x10],rcx
  1031cc:	e9 64 fe ff ff       	jmp    103035 <klog_write_fmt+0x2e5>
  1031d1:	48 8b 4c 24 10       	mov    rcx,QWORD PTR [rsp+0x10]
  1031d6:	48 8d 41 08          	lea    rax,[rcx+0x8]
  1031da:	48 8b 19             	mov    rbx,QWORD PTR [rcx]
  1031dd:	eb e4                	jmp    1031c3 <klog_write_fmt+0x473>
  1031df:	8b 4c 24 08          	mov    ecx,DWORD PTR [rsp+0x8]
  1031e3:	83 f9 2f             	cmp    ecx,0x2f
  1031e6:	0f 87 84 00 00 00    	ja     103270 <klog_write_fmt+0x520>
  1031ec:	48 8d 5c 24 20       	lea    rbx,[rsp+0x20]
  1031f1:	89 c8                	mov    eax,ecx
  1031f3:	83 c1 08             	add    ecx,0x8
  1031f6:	89 4c 24 08          	mov    DWORD PTR [rsp+0x8],ecx
  1031fa:	48 01 d8             	add    rax,rbx
  1031fd:	4c 8b 20             	mov    r12,QWORD PTR [rax]
  103200:	41 80 3c 24 00       	cmp    BYTE PTR [r12],0x0
  103205:	74 48                	je     10324f <klog_write_fmt+0x4ff>
  103207:	31 c9                	xor    ecx,ecx
  103209:	48 83 c1 01          	add    rcx,0x1
  10320d:	42 80 3c 21 00       	cmp    BYTE PTR [rcx+r12*1],0x0
  103212:	75 f5                	jne    103209 <klog_write_fmt+0x4b9>
  103214:	49 8d 1c 08          	lea    rbx,[r8+rcx*1]
  103218:	48 81 fb 80 00 00 00 	cmp    rbx,0x80
  10321f:	0f 87 75 fc ff ff    	ja     102e9a <klog_write_fmt+0x14a>
  103225:	4b 8d 2c 02          	lea    rbp,[r10+r8*1]
  103229:	31 c0                	xor    eax,eax
  10322b:	46 0f b6 04 20       	movzx  r8d,BYTE PTR [rax+r12*1]
  103230:	44 88 44 05 00       	mov    BYTE PTR [rbp+rax*1+0x0],r8b
  103235:	48 83 c0 01          	add    rax,0x1
  103239:	48 39 c1             	cmp    rcx,rax
  10323c:	75 ed                	jne    10322b <klog_write_fmt+0x4db>
  10323e:	49 83 c1 02          	add    r9,0x2
  103242:	49 89 d8             	mov    r8,rbx
  103245:	42 0f b6 04 0e       	movzx  eax,BYTE PTR [rsi+r9*1]
  10324a:	e9 d5 fb ff ff       	jmp    102e24 <klog_write_fmt+0xd4>
  10324f:	49 81 f8 80 00 00 00 	cmp    r8,0x80
  103256:	0f 87 3e fc ff ff    	ja     102e9a <klog_write_fmt+0x14a>
  10325c:	4c 89 c3             	mov    rbx,r8
  10325f:	49 83 c1 02          	add    r9,0x2
  103263:	42 0f b6 04 0e       	movzx  eax,BYTE PTR [rsi+r9*1]
  103268:	49 89 d8             	mov    r8,rbx
  10326b:	e9 b4 fb ff ff       	jmp    102e24 <klog_write_fmt+0xd4>
  103270:	48 8b 44 24 10       	mov    rax,QWORD PTR [rsp+0x10]
  103275:	48 8d 48 08          	lea    rcx,[rax+0x8]
  103279:	48 89 4c 24 10       	mov    QWORD PTR [rsp+0x10],rcx
  10327e:	e9 7a ff ff ff       	jmp    1031fd <klog_write_fmt+0x4ad>
  103283:	bb 01 00 00 00       	mov    ebx,0x1
  103288:	e9 49 fd ff ff       	jmp    102fd6 <klog_write_fmt+0x286>
  10328d:	0f 1f 00             	nop    DWORD PTR [rax]

0000000000103290 <silly_page_map>:
  103290:	49 89 f8             	mov    r8,rdi
  103293:	44 8b 0d 66 2d 00 00 	mov    r9d,DWORD PTR [rip+0x2d66]        # 106000 <g_current_page_index>
  10329a:	81 e7 ff ff 1f 00    	and    edi,0x1fffff
  1032a0:	4c 89 c0             	mov    rax,r8
  1032a3:	53                   	push   rbx
  1032a4:	48 29 f8             	sub    rax,rdi
  1032a7:	40 84 f6             	test   sil,sil
  1032aa:	49 89 c2             	mov    r10,rax
  1032ad:	44 89 ce             	mov    esi,r9d
  1032b0:	74 4b                	je     1032fd <silly_page_map+0x6d>
  1032b2:	41 80 ca 83          	or     r10b,0x83
  1032b6:	4c 89 14 f5 00 20 11 	mov    QWORD PTR [rsi*8+0x112000],r10
  1032bd:	00 
  1032be:	44 89 cb             	mov    ebx,r9d
  1032c1:	41 83 c1 01          	add    r9d,0x1
  1032c5:	48 89 39             	mov    QWORD PTR [rcx],rdi
  1032c8:	44 89 0d 31 2d 00 00 	mov    DWORD PTR [rip+0x2d31],r9d        # 106000 <g_current_page_index>
  1032cf:	48 89 02             	mov    QWORD PTR [rdx],rax
  1032d2:	c1 e3 15             	shl    ebx,0x15
  1032d5:	42 ff 34 cd 00 20 11 	push   QWORD PTR [r9*8+0x112000]
  1032dc:	00 
  1032dd:	4c 8b 09             	mov    r9,QWORD PTR [rcx]
  1032e0:	48 89 c2             	mov    rdx,rax
  1032e3:	48 89 d9             	mov    rcx,rbx
  1032e6:	31 c0                	xor    eax,eax
  1032e8:	be c8 10 10 00       	mov    esi,0x1010c8
  1032ed:	bf 20 78 10 00       	mov    edi,0x107820
  1032f2:	e8 59 fa ff ff       	call   102d50 <klog_write_fmt>
  1032f7:	58                   	pop    rax
  1032f8:	48 89 d8             	mov    rax,rbx
  1032fb:	5b                   	pop    rbx
  1032fc:	c3                   	ret    
  1032fd:	41 80 ca 81          	or     r10b,0x81
  103301:	4c 89 14 f5 00 20 11 	mov    QWORD PTR [rsi*8+0x112000],r10
  103308:	00 
  103309:	eb b3                	jmp    1032be <silly_page_map+0x2e>
  10330b:	0f 1f 44 00 00       	nop    DWORD PTR [rax+rax*1+0x0]

0000000000103310 <ap_entry_procedure>:
  103310:	31 c0                	xor    eax,eax
  103312:	be 88 0c 10 00       	mov    esi,0x100c88
  103317:	bf 20 78 10 00       	mov    edi,0x107820
  10331c:	e8 2f fa ff ff       	call   102d50 <klog_write_fmt>
  103321:	be 80 11 10 00       	mov    esi,0x101180
  103326:	bf 20 78 10 00       	mov    edi,0x107820
  10332b:	31 c0                	xor    eax,eax
  10332d:	e8 1e fa ff ff       	call   102d50 <klog_write_fmt>
  103332:	f4                   	hlt    
  103333:	be c8 11 10 00       	mov    esi,0x1011c8
  103338:	bf 20 78 10 00       	mov    edi,0x107820
  10333d:	31 c0                	xor    eax,eax
  10333f:	e9 0c fa ff ff       	jmp    102d50 <klog_write_fmt>
  103344:	66 90                	xchg   ax,ax
  103346:	66 2e 0f 1f 84 00 00 	nop    WORD PTR cs:[rax+rax*1+0x0]
  10334d:	00 00 00 

0000000000103350 <print_page_table_entry_info>:
  103350:	41 57                	push   r15
  103352:	41 56                	push   r14
  103354:	48 89 f8             	mov    rax,rdi
  103357:	41 55                	push   r13
  103359:	41 54                	push   r12
  10335b:	83 e0 10             	and    eax,0x10
  10335e:	55                   	push   rbp
  10335f:	53                   	push   rbx
  103360:	48 89 f9             	mov    rcx,rdi
  103363:	48 89 fa             	mov    rdx,rdi
  103366:	81 e1 80 00 00 00    	and    ecx,0x80
  10336c:	bd a8 0c 10 00       	mov    ebp,0x100ca8
  103371:	48 83 ec 10          	sub    rsp,0x10
  103375:	48 81 e2 00 f0 ff ff 	and    rdx,0xfffffffffffff000
  10337c:	49 89 fc             	mov    r12,rdi
  10337f:	48 89 04 24          	mov    QWORD PTR [rsp],rax
  103383:	49 89 ff             	mov    r15,rdi
  103386:	31 c0                	xor    eax,eax
  103388:	49 89 fe             	mov    r14,rdi
  10338b:	49 89 fd             	mov    r13,rdi
  10338e:	be ae 0c 10 00       	mov    esi,0x100cae
  103393:	bf 20 78 10 00       	mov    edi,0x107820
  103398:	48 89 4c 24 08       	mov    QWORD PTR [rsp+0x8],rcx
  10339d:	bb a3 0c 10 00       	mov    ebx,0x100ca3
  1033a2:	e8 a9 f9 ff ff       	call   102d50 <klog_write_fmt>
  1033a7:	41 83 e7 02          	and    r15d,0x2
  1033ab:	41 83 e6 04          	and    r14d,0x4
  1033af:	41 83 e5 08          	and    r13d,0x8
  1033b3:	48 89 ea             	mov    rdx,rbp
  1033b6:	41 83 e4 01          	and    r12d,0x1
  1033ba:	be c4 0c 10 00       	mov    esi,0x100cc4
  1033bf:	48 0f 45 d3          	cmovne rdx,rbx
  1033c3:	bf 20 78 10 00       	mov    edi,0x107820
  1033c8:	31 c0                	xor    eax,eax
  1033ca:	e8 81 f9 ff ff       	call   102d50 <klog_write_fmt>
  1033cf:	4d 85 ff             	test   r15,r15
  1033d2:	48 89 ea             	mov    rdx,rbp
  1033d5:	be d0 0c 10 00       	mov    esi,0x100cd0
  1033da:	48 0f 45 d3          	cmovne rdx,rbx
  1033de:	bf 20 78 10 00       	mov    edi,0x107820
  1033e3:	31 c0                	xor    eax,eax
  1033e5:	e8 66 f9 ff ff       	call   102d50 <klog_write_fmt>
  1033ea:	4d 85 f6             	test   r14,r14
  1033ed:	48 89 ea             	mov    rdx,rbp
  1033f0:	be de 0c 10 00       	mov    esi,0x100cde
  1033f5:	48 0f 45 d3          	cmovne rdx,rbx
  1033f9:	bf 20 78 10 00       	mov    edi,0x107820
  1033fe:	31 c0                	xor    eax,eax
  103400:	e8 4b f9 ff ff       	call   102d50 <klog_write_fmt>
  103405:	4d 85 ed             	test   r13,r13
  103408:	48 89 ea             	mov    rdx,rbp
  10340b:	be f3 0c 10 00       	mov    esi,0x100cf3
  103410:	48 0f 45 d3          	cmovne rdx,rbx
  103414:	bf 20 78 10 00       	mov    edi,0x107820
  103419:	31 c0                	xor    eax,eax
  10341b:	e8 30 f9 ff ff       	call   102d50 <klog_write_fmt>
  103420:	48 83 3c 24 00       	cmp    QWORD PTR [rsp],0x0
  103425:	48 89 ea             	mov    rdx,rbp
  103428:	be 0d 0d 10 00       	mov    esi,0x100d0d
  10342d:	bf 20 78 10 00       	mov    edi,0x107820
  103432:	48 0f 45 d3          	cmovne rdx,rbx
  103436:	31 c0                	xor    eax,eax
  103438:	e8 13 f9 ff ff       	call   102d50 <klog_write_fmt>
  10343d:	48 83 7c 24 08 00    	cmp    QWORD PTR [rsp+0x8],0x0
  103443:	48 89 ea             	mov    rdx,rbp
  103446:	be 22 0d 10 00       	mov    esi,0x100d22
  10344b:	bf 20 78 10 00       	mov    edi,0x107820
  103450:	48 0f 45 d3          	cmovne rdx,rbx
  103454:	48 83 c4 10          	add    rsp,0x10
  103458:	31 c0                	xor    eax,eax
  10345a:	5b                   	pop    rbx
  10345b:	5d                   	pop    rbp
  10345c:	41 5c                	pop    r12
  10345e:	41 5d                	pop    r13
  103460:	41 5e                	pop    r14
  103462:	41 5f                	pop    r15
  103464:	e9 e7 f8 ff ff       	jmp    102d50 <klog_write_fmt>
  103469:	0f 1f 80 00 00 00 00 	nop    DWORD PTR [rax+0x0]

0000000000103470 <irq_common_handler>:
  103470:	48 83 ec 08          	sub    rsp,0x8
  103474:	48 8b 44 24 28       	mov    rax,QWORD PTR [rsp+0x28]
  103479:	48 8b 14 c5 20 60 10 	mov    rdx,QWORD PTR [rax*8+0x106020]
  103480:	00 
  103481:	48 85 d2             	test   rdx,rdx
  103484:	75 3a                	jne    1034c0 <irq_common_handler+0x50>
  103486:	ba ff ff ff ff       	mov    edx,0xffffffff
  10348b:	48 39 d0             	cmp    rax,rdx
  10348e:	74 38                	je     1034c8 <irq_common_handler+0x58>
  103490:	be f8 11 10 00       	mov    esi,0x1011f8
  103495:	bf 20 78 10 00       	mov    edi,0x107820
  10349a:	31 c0                	xor    eax,eax
  10349c:	e8 af f8 ff ff       	call   102d50 <klog_write_fmt>
  1034a1:	48 8b 05 c0 c8 00 00 	mov    rax,QWORD PTR [rip+0xc8c0]        # 10fd68 <globals+0x8548>
  1034a8:	c7 80 b0 00 00 00 00 	mov    DWORD PTR [rax+0xb0],0x0
  1034af:	00 00 00 
  1034b2:	48 83 c4 08          	add    rsp,0x8
  1034b6:	c3                   	ret    
  1034b7:	66 0f 1f 84 00 00 00 	nop    WORD PTR [rax+rax*1+0x0]
  1034be:	00 00 
  1034c0:	ff d2                	call   rdx
  1034c2:	eb dd                	jmp    1034a1 <irq_common_handler+0x31>
  1034c4:	0f 1f 40 00          	nop    DWORD PTR [rax+0x0]
  1034c8:	be 30 0d 10 00       	mov    esi,0x100d30
  1034cd:	bf 20 78 10 00       	mov    edi,0x107820
  1034d2:	31 c0                	xor    eax,eax
  1034d4:	48 83 c4 08          	add    rsp,0x8
  1034d8:	e9 73 f8 ff ff       	jmp    102d50 <klog_write_fmt>
  1034dd:	0f 1f 00             	nop    DWORD PTR [rax]

00000000001034e0 <klog_disable>:
  1034e0:	c6 05 79 c8 00 00 01 	mov    BYTE PTR [rip+0xc879],0x1        # 10fd60 <globals+0x8540>
  1034e7:	c3                   	ret    
  1034e8:	0f 1f 84 00 00 00 00 	nop    DWORD PTR [rax+rax*1+0x0]
  1034ef:	00 

00000000001034f0 <klog_enable>:
  1034f0:	c6 05 69 c8 00 00 00 	mov    BYTE PTR [rip+0xc869],0x0        # 10fd60 <globals+0x8540>
  1034f7:	c3                   	ret    
  1034f8:	0f 1f 84 00 00 00 00 	nop    DWORD PTR [rax+rax*1+0x0]
  1034ff:	00 

0000000000103500 <redraw_vga_text_terminal_if_log_is_dirty>:
  103500:	53                   	push   rbx
  103501:	48 8b 86 08 84 00 00 	mov    rax,QWORD PTR [rsi+0x8408]
  103508:	48 83 f8 18          	cmp    rax,0x18
  10350c:	0f 87 e9 00 00 00    	ja     1035fb <redraw_vga_text_terminal_if_log_is_dirty+0xfb>
  103512:	48 85 c0             	test   rax,rax
  103515:	74 71                	je     103588 <redraw_vga_text_terminal_if_log_is_dirty+0x88>
  103517:	48 89 f7             	mov    rdi,rsi
  10351a:	45 31 c0             	xor    r8d,r8d
  10351d:	45 31 d2             	xor    r10d,r10d
  103520:	41 bb 50 00 00 00    	mov    r11d,0x50
  103526:	66 2e 0f 1f 84 00 00 	nop    WORD PTR cs:[rax+rax*1+0x0]
  10352d:	00 00 00 
  103530:	83 bf 80 00 00 00 50 	cmp    DWORD PTR [rdi+0x80],0x50
  103537:	44 89 d8             	mov    eax,r11d
  10353a:	0f 46 87 80 00 00 00 	cmovbe eax,DWORD PTR [rdi+0x80]
  103541:	85 c0                	test   eax,eax
  103543:	41 89 c1             	mov    r9d,eax
  103546:	74 28                	je     103570 <redraw_vga_text_terminal_if_log_is_dirty+0x70>
  103548:	31 c0                	xor    eax,eax
  10354a:	66 0f 1f 44 00 00    	nop    WORD PTR [rax+rax*1+0x0]
  103550:	0f b6 0c 07          	movzx  ecx,BYTE PTR [rdi+rax*1]
  103554:	4a 8d 14 00          	lea    rdx,[rax+r8*1]
  103558:	48 83 c0 01          	add    rax,0x1
  10355c:	49 39 c1             	cmp    r9,rax
  10355f:	c6 84 12 01 80 0b 00 	mov    BYTE PTR [rdx+rdx*1+0xb8001],0x2
  103566:	02 
  103567:	88 8c 12 00 80 0b 00 	mov    BYTE PTR [rdx+rdx*1+0xb8000],cl
  10356e:	75 e0                	jne    103550 <redraw_vga_text_terminal_if_log_is_dirty+0x50>
  103570:	49 83 c2 01          	add    r10,0x1
  103574:	48 81 c7 84 00 00 00 	add    rdi,0x84
  10357b:	49 83 c0 50          	add    r8,0x50
  10357f:	4c 39 96 08 84 00 00 	cmp    QWORD PTR [rsi+0x8408],r10
  103586:	77 a8                	ja     103530 <redraw_vga_text_terminal_if_log_is_dirty+0x30>
  103588:	48 83 be 18 85 00 00 	cmp    QWORD PTR [rsi+0x8518],0x50
  10358f:	50 
  103590:	b9 50 00 00 00       	mov    ecx,0x50
  103595:	48 0f 46 8e 18 85 00 	cmovbe rcx,QWORD PTR [rsi+0x8518]
  10359c:	00 
  10359d:	48 85 c9             	test   rcx,rcx
  1035a0:	0f 84 00 01 00 00    	je     1036a6 <redraw_vga_text_terminal_if_log_is_dirty+0x1a6>
  1035a6:	31 c0                	xor    eax,eax
  1035a8:	0f 1f 84 00 00 00 00 	nop    DWORD PTR [rax+rax*1+0x0]
  1035af:	00 
  1035b0:	0f b6 94 06 18 84 00 	movzx  edx,BYTE PTR [rsi+rax*1+0x8418]
  1035b7:	00 
  1035b8:	c6 84 00 01 8f 0b 00 	mov    BYTE PTR [rax+rax*1+0xb8f01],0x4
  1035bf:	04 
  1035c0:	88 94 00 00 8f 0b 00 	mov    BYTE PTR [rax+rax*1+0xb8f00],dl
  1035c7:	48 83 c0 01          	add    rax,0x1
  1035cb:	48 39 c1             	cmp    rcx,rax
  1035ce:	75 e0                	jne    1035b0 <redraw_vga_text_terminal_if_log_is_dirty+0xb0>
  1035d0:	ba 50 00 00 00       	mov    edx,0x50
  1035d5:	48 29 ca             	sub    rdx,rcx
  1035d8:	74 1f                	je     1035f9 <redraw_vga_text_terminal_if_log_is_dirty+0xf9>
  1035da:	31 c0                	xor    eax,eax
  1035dc:	48 8d 34 01          	lea    rsi,[rcx+rax*1]
  1035e0:	48 83 c0 01          	add    rax,0x1
  1035e4:	48 39 c2             	cmp    rdx,rax
  1035e7:	c6 84 36 00 8f 0b 00 	mov    BYTE PTR [rsi+rsi*1+0xb8f00],0x0
  1035ee:	00 
  1035ef:	c6 84 36 01 8f 0b 00 	mov    BYTE PTR [rsi+rsi*1+0xb8f01],0x0
  1035f6:	00 
  1035f7:	77 e3                	ja     1035dc <redraw_vga_text_terminal_if_log_is_dirty+0xdc>
  1035f9:	5b                   	pop    rbx
  1035fa:	c3                   	ret    
  1035fb:	45 31 c9             	xor    r9d,r9d
  1035fe:	41 bb 18 00 00 00    	mov    r11d,0x18
  103604:	41 ba 50 00 00 00    	mov    r10d,0x50
  10360a:	48 8b 86 10 84 00 00 	mov    rax,QWORD PTR [rsi+0x8410]
  103611:	44 89 d3             	mov    ebx,r10d
  103614:	4c 29 d8             	sub    rax,r11
  103617:	0f b6 c0             	movzx  eax,al
  10361a:	48 89 c2             	mov    rdx,rax
  10361d:	48 c1 e2 05          	shl    rdx,0x5
  103621:	48 01 d0             	add    rax,rdx
  103624:	4c 8d 04 86          	lea    r8,[rsi+rax*4]
  103628:	41 83 b8 80 00 00 00 	cmp    DWORD PTR [r8+0x80],0x50
  10362f:	50 
  103630:	41 0f 46 98 80 00 00 	cmovbe ebx,DWORD PTR [r8+0x80]
  103637:	00 
  103638:	85 db                	test   ebx,ebx
  10363a:	89 df                	mov    edi,ebx
  10363c:	74 72                	je     1036b0 <redraw_vga_text_terminal_if_log_is_dirty+0x1b0>
  10363e:	31 c0                	xor    eax,eax
  103640:	41 0f b6 0c 00       	movzx  ecx,BYTE PTR [r8+rax*1]
  103645:	4a 8d 14 08          	lea    rdx,[rax+r9*1]
  103649:	48 83 c0 01          	add    rax,0x1
  10364d:	48 39 c7             	cmp    rdi,rax
  103650:	c6 84 12 01 80 0b 00 	mov    BYTE PTR [rdx+rdx*1+0xb8001],0x2
  103657:	02 
  103658:	88 8c 12 00 80 0b 00 	mov    BYTE PTR [rdx+rdx*1+0xb8000],cl
  10365f:	75 df                	jne    103640 <redraw_vga_text_terminal_if_log_is_dirty+0x140>
  103661:	44 89 d1             	mov    ecx,r10d
  103664:	29 d9                	sub    ecx,ebx
  103666:	74 24                	je     10368c <redraw_vga_text_terminal_if_log_is_dirty+0x18c>
  103668:	4c 01 cf             	add    rdi,r9
  10366b:	31 c0                	xor    eax,eax
  10366d:	0f 1f 00             	nop    DWORD PTR [rax]
  103670:	48 8d 14 38          	lea    rdx,[rax+rdi*1]
  103674:	48 83 c0 01          	add    rax,0x1
  103678:	39 c1                	cmp    ecx,eax
  10367a:	c6 84 12 00 80 0b 00 	mov    BYTE PTR [rdx+rdx*1+0xb8000],0x0
  103681:	00 
  103682:	c6 84 12 01 80 0b 00 	mov    BYTE PTR [rdx+rdx*1+0xb8001],0x0
  103689:	00 
  10368a:	7f e4                	jg     103670 <redraw_vga_text_terminal_if_log_is_dirty+0x170>
  10368c:	49 83 c1 50          	add    r9,0x50
  103690:	49 83 eb 01          	sub    r11,0x1
  103694:	49 81 f9 d0 07 00 00 	cmp    r9,0x7d0
  10369b:	0f 85 69 ff ff ff    	jne    10360a <redraw_vga_text_terminal_if_log_is_dirty+0x10a>
  1036a1:	e9 e2 fe ff ff       	jmp    103588 <redraw_vga_text_terminal_if_log_is_dirty+0x88>
  1036a6:	ba 50 00 00 00       	mov    edx,0x50
  1036ab:	e9 2a ff ff ff       	jmp    1035da <redraw_vga_text_terminal_if_log_is_dirty+0xda>
  1036b0:	b9 50 00 00 00       	mov    ecx,0x50
  1036b5:	eb b1                	jmp    103668 <redraw_vga_text_terminal_if_log_is_dirty+0x168>
  1036b7:	66 0f 1f 84 00 00 00 	nop    WORD PTR [rax+rax*1+0x0]
  1036be:	00 00 

00000000001036c0 <parse_root_system_descriptor>:
  1036c0:	41 57                	push   r15
  1036c2:	41 56                	push   r14
  1036c4:	41 55                	push   r13
  1036c6:	41 54                	push   r12
  1036c8:	55                   	push   rbp
  1036c9:	53                   	push   rbx
  1036ca:	48 83 ec 18          	sub    rsp,0x18
  1036ce:	80 3f 52             	cmp    BYTE PTR [rdi],0x52
  1036d1:	74 35                	je     103708 <parse_root_system_descriptor+0x48>
  1036d3:	be a1 0d 10 00       	mov    esi,0x100da1
  1036d8:	bf 20 78 10 00       	mov    edi,0x107820
  1036dd:	31 c0                	xor    eax,eax
  1036df:	e8 6c f6 ff ff       	call   102d50 <klog_write_fmt>
  1036e4:	be b3 0d 10 00       	mov    esi,0x100db3
  1036e9:	bf 20 78 10 00       	mov    edi,0x107820
  1036ee:	31 c0                	xor    eax,eax
  1036f0:	e8 5b f6 ff ff       	call   102d50 <klog_write_fmt>
  1036f5:	48 83 c4 18          	add    rsp,0x18
  1036f9:	5b                   	pop    rbx
  1036fa:	5d                   	pop    rbp
  1036fb:	41 5c                	pop    r12
  1036fd:	41 5d                	pop    r13
  1036ff:	41 5e                	pop    r14
  103701:	41 5f                	pop    r15
  103703:	c3                   	ret    
  103704:	0f 1f 40 00          	nop    DWORD PTR [rax+0x0]
  103708:	80 7f 01 53          	cmp    BYTE PTR [rdi+0x1],0x53
  10370c:	48 89 fb             	mov    rbx,rdi
  10370f:	75 c2                	jne    1036d3 <parse_root_system_descriptor+0x13>
  103711:	80 7f 02 44          	cmp    BYTE PTR [rdi+0x2],0x44
  103715:	75 bc                	jne    1036d3 <parse_root_system_descriptor+0x13>
  103717:	80 7f 03 20          	cmp    BYTE PTR [rdi+0x3],0x20
  10371b:	75 b6                	jne    1036d3 <parse_root_system_descriptor+0x13>
  10371d:	80 7f 04 50          	cmp    BYTE PTR [rdi+0x4],0x50
  103721:	75 b0                	jne    1036d3 <parse_root_system_descriptor+0x13>
  103723:	80 7f 05 54          	cmp    BYTE PTR [rdi+0x5],0x54
  103727:	75 aa                	jne    1036d3 <parse_root_system_descriptor+0x13>
  103729:	80 7f 06 52          	cmp    BYTE PTR [rdi+0x6],0x52
  10372d:	75 a4                	jne    1036d3 <parse_root_system_descriptor+0x13>
  10372f:	80 7f 07 20          	cmp    BYTE PTR [rdi+0x7],0x20
  103733:	75 9e                	jne    1036d3 <parse_root_system_descriptor+0x13>
  103735:	8b 57 10             	mov    edx,DWORD PTR [rdi+0x10]
  103738:	31 c0                	xor    eax,eax
  10373a:	bf 20 78 10 00       	mov    edi,0x107820
  10373f:	48 89 f5             	mov    rbp,rsi
  103742:	be 18 12 10 00       	mov    esi,0x101218
  103747:	45 31 ed             	xor    r13d,r13d
  10374a:	e8 01 f6 ff ff       	call   102d50 <klog_write_fmt>
  10374f:	8b 7b 10             	mov    edi,DWORD PTR [rbx+0x10]
  103752:	48 8d 4c 24 10       	lea    rcx,[rsp+0x10]
  103757:	48 8d 54 24 08       	lea    rdx,[rsp+0x8]
  10375c:	31 f6                	xor    esi,esi
  10375e:	e8 2d fb ff ff       	call   103290 <silly_page_map>
  103763:	49 89 c6             	mov    r14,rax
  103766:	4c 03 74 24 10       	add    r14,QWORD PTR [rsp+0x10]
  10376b:	49 89 c7             	mov    r15,rax
  10376e:	45 8b 66 04          	mov    r12d,DWORD PTR [r14+0x4]
  103772:	49 83 ec 24          	sub    r12,0x24
  103776:	49 c1 ec 02          	shr    r12,0x2
  10377a:	44 89 e0             	mov    eax,r12d
  10377d:	48 89 04 24          	mov    QWORD PTR [rsp],rax
  103781:	4c 3b 2c 24          	cmp    r13,QWORD PTR [rsp]
  103785:	0f 83 59 ff ff ff    	jae    1036e4 <parse_root_system_descriptor+0x24>
  10378b:	43 8b 44 ae 24       	mov    eax,DWORD PTR [r14+r13*4+0x24]
  103790:	48 2b 44 24 08       	sub    rax,QWORD PTR [rsp+0x8]
  103795:	48 89 c3             	mov    rbx,rax
  103798:	78 11                	js     1037ab <parse_root_system_descriptor+0xeb>
  10379a:	4c 01 fb             	add    rbx,r15
  10379d:	81 3b 41 50 49 43    	cmp    DWORD PTR [rbx],0x43495041
  1037a3:	74 2a                	je     1037cf <parse_root_system_descriptor+0x10f>
  1037a5:	49 83 c5 01          	add    r13,0x1
  1037a9:	eb d6                	jmp    103781 <parse_root_system_descriptor+0xc1>
  1037ab:	31 c0                	xor    eax,eax
  1037ad:	be 42 0d 10 00       	mov    esi,0x100d42
  1037b2:	bf 20 78 10 00       	mov    edi,0x107820
  1037b7:	e8 94 f5 ff ff       	call   102d50 <klog_write_fmt>
  1037bc:	be 20 78 10 00       	mov    esi,0x107820
  1037c1:	bf 48 fd 10 00       	mov    edi,0x10fd48
  1037c6:	e8 35 fd ff ff       	call   103500 <redraw_vga_text_terminal_if_log_is_dirty>
  1037cb:	fa                   	cli    
  1037cc:	f4                   	hlt    
  1037cd:	eb cb                	jmp    10379a <parse_root_system_descriptor+0xda>
  1037cf:	31 c0                	xor    eax,eax
  1037d1:	be 56 0d 10 00       	mov    esi,0x100d56
  1037d6:	bf 20 78 10 00       	mov    edi,0x107820
  1037db:	e8 70 f5 ff ff       	call   102d50 <klog_write_fmt>
  1037e0:	8b 43 24             	mov    eax,DWORD PTR [rbx+0x24]
  1037e3:	4c 8d 63 2c          	lea    r12,[rbx+0x2c]
  1037e7:	48 89 45 08          	mov    QWORD PTR [rbp+0x8],rax
  1037eb:	8b 43 04             	mov    eax,DWORD PTR [rbx+0x4]
  1037ee:	eb 5f                	jmp    10384f <parse_root_system_descriptor+0x18f>
  1037f0:	80 ea 01             	sub    dl,0x1
  1037f3:	75 51                	jne    103846 <parse_root_system_descriptor+0x186>
  1037f5:	31 c0                	xor    eax,eax
  1037f7:	be 67 0d 10 00       	mov    esi,0x100d67
  1037fc:	bf 20 78 10 00       	mov    edi,0x107820
  103801:	e8 4a f5 ff ff       	call   102d50 <klog_write_fmt>
  103806:	41 0f b6 54 24 02    	movzx  edx,BYTE PTR [r12+0x2]
  10380c:	31 c0                	xor    eax,eax
  10380e:	be 77 0d 10 00       	mov    esi,0x100d77
  103813:	bf 20 78 10 00       	mov    edi,0x107820
  103818:	e8 33 f5 ff ff       	call   102d50 <klog_write_fmt>
  10381d:	41 8b 54 24 04       	mov    edx,DWORD PTR [r12+0x4]
  103822:	31 c0                	xor    eax,eax
  103824:	be 85 0d 10 00       	mov    esi,0x100d85
  103829:	bf 20 78 10 00       	mov    edi,0x107820
  10382e:	e8 1d f5 ff ff       	call   102d50 <klog_write_fmt>
  103833:	48 83 7d 00 00       	cmp    QWORD PTR [rbp+0x0],0x0
  103838:	75 3b                	jne    103875 <parse_root_system_descriptor+0x1b5>
  10383a:	41 8b 44 24 04       	mov    eax,DWORD PTR [r12+0x4]
  10383f:	48 89 45 00          	mov    QWORD PTR [rbp+0x0],rax
  103843:	8b 43 04             	mov    eax,DWORD PTR [rbx+0x4]
  103846:	41 0f b6 54 24 01    	movzx  edx,BYTE PTR [r12+0x1]
  10384c:	49 01 d4             	add    r12,rdx
  10384f:	4c 89 e2             	mov    rdx,r12
  103852:	48 29 da             	sub    rdx,rbx
  103855:	48 39 c2             	cmp    rdx,rax
  103858:	0f 83 47 ff ff ff    	jae    1037a5 <parse_root_system_descriptor+0xe5>
  10385e:	41 0f b6 14 24       	movzx  edx,BYTE PTR [r12]
  103863:	84 d2                	test   dl,dl
  103865:	75 89                	jne    1037f0 <parse_root_system_descriptor+0x130>
  103867:	41 f6 44 24 04 01    	test   BYTE PTR [r12+0x4],0x1
  10386d:	74 1c                	je     10388b <parse_root_system_descriptor+0x1cb>
  10386f:	83 45 10 01          	add    DWORD PTR [rbp+0x10],0x1
  103873:	eb d1                	jmp    103846 <parse_root_system_descriptor+0x186>
  103875:	31 c0                	xor    eax,eax
  103877:	be 48 12 10 00       	mov    esi,0x101248
  10387c:	bf 20 78 10 00       	mov    edi,0x107820
  103881:	e8 ca f4 ff ff       	call   102d50 <klog_write_fmt>
  103886:	8b 43 04             	mov    eax,DWORD PTR [rbx+0x4]
  103889:	eb bb                	jmp    103846 <parse_root_system_descriptor+0x186>
  10388b:	31 c0                	xor    eax,eax
  10388d:	be 42 0d 10 00       	mov    esi,0x100d42
  103892:	bf 20 78 10 00       	mov    edi,0x107820
  103897:	e8 b4 f4 ff ff       	call   102d50 <klog_write_fmt>
  10389c:	be 20 78 10 00       	mov    esi,0x107820
  1038a1:	bf 48 fd 10 00       	mov    edi,0x10fd48
  1038a6:	e8 55 fc ff ff       	call   103500 <redraw_vga_text_terminal_if_log_is_dirty>
  1038ab:	fa                   	cli    
  1038ac:	f4                   	hlt    
  1038ad:	8b 43 04             	mov    eax,DWORD PTR [rbx+0x4]
  1038b0:	eb bd                	jmp    10386f <parse_root_system_descriptor+0x1af>
  1038b2:	0f 1f 40 00          	nop    DWORD PTR [rax+0x0]
  1038b6:	66 2e 0f 1f 84 00 00 	nop    WORD PTR cs:[rax+rax*1+0x0]
  1038bd:	00 00 00 

00000000001038c0 <kernel_longmode_entry>:
  1038c0:	41 54                	push   r12
  1038c2:	55                   	push   rbp
  1038c3:	41 b8 f9 03 00 00    	mov    r8d,0x3f9
  1038c9:	53                   	push   rbx
  1038ca:	48 89 fb             	mov    rbx,rdi
  1038cd:	31 ff                	xor    edi,edi
  1038cf:	48 89 f5             	mov    rbp,rsi
  1038d2:	89 f8                	mov    eax,edi
  1038d4:	44 89 c2             	mov    edx,r8d
  1038d7:	48 83 ec 70          	sub    rsp,0x70
  1038db:	ee                   	out    dx,al
  1038dc:	be fb 03 00 00       	mov    esi,0x3fb
  1038e1:	b8 80 ff ff ff       	mov    eax,0xffffff80
  1038e6:	89 f2                	mov    edx,esi
  1038e8:	ee                   	out    dx,al
  1038e9:	b9 01 00 00 00       	mov    ecx,0x1
  1038ee:	ba f8 03 00 00       	mov    edx,0x3f8
  1038f3:	89 c8                	mov    eax,ecx
  1038f5:	ee                   	out    dx,al
  1038f6:	89 f8                	mov    eax,edi
  1038f8:	44 89 c2             	mov    edx,r8d
  1038fb:	ee                   	out    dx,al
  1038fc:	b8 03 00 00 00       	mov    eax,0x3
  103901:	89 f2                	mov    edx,esi
  103903:	ee                   	out    dx,al
  103904:	ba fa 03 00 00       	mov    edx,0x3fa
  103909:	b8 c7 ff ff ff       	mov    eax,0xffffffc7
  10390e:	ee                   	out    dx,al
  10390f:	ba fc 03 00 00       	mov    edx,0x3fc
  103914:	b8 0b 00 00 00       	mov    eax,0xb
  103919:	ee                   	out    dx,al
  10391a:	b8 11 00 00 00       	mov    eax,0x11
  10391f:	e6 20                	out    0x20,al
  103921:	e6 a0                	out    0xa0,al
  103923:	ba 20 00 00 00       	mov    edx,0x20
  103928:	89 d0                	mov    eax,edx
  10392a:	e6 21                	out    0x21,al
  10392c:	b8 28 00 00 00       	mov    eax,0x28
  103931:	e6 a1                	out    0xa1,al
  103933:	b8 04 00 00 00       	mov    eax,0x4
  103938:	e6 21                	out    0x21,al
  10393a:	b8 02 00 00 00       	mov    eax,0x2
  10393f:	e6 a1                	out    0xa1,al
  103941:	89 c8                	mov    eax,ecx
  103943:	e6 21                	out    0x21,al
  103945:	e6 a1                	out    0xa1,al
  103947:	89 d0                	mov    eax,edx
  103949:	e6 21                	out    0x21,al
  10394b:	e6 a1                	out    0xa1,al
  10394d:	b8 ff ff ff ff       	mov    eax,0xffffffff
  103952:	e6 21                	out    0x21,al
  103954:	e6 a1                	out    0xa1,al
  103956:	be d1 0d 10 00       	mov    esi,0x100dd1
  10395b:	bf 20 78 10 00       	mov    edi,0x107820
  103960:	31 c0                	xor    eax,eax
  103962:	e8 e9 f3 ff ff       	call   102d50 <klog_write_fmt>
  103967:	b9 e5 49 10 00       	mov    ecx,0x1049e5
  10396c:	ba 20 60 10 00       	mov    edx,0x106020
  103971:	be 20 78 10 00       	mov    esi,0x107820
  103976:	48 89 c8             	mov    rax,rcx
  103979:	41 89 c8             	mov    r8d,ecx
  10397c:	48 c1 e9 20          	shr    rcx,0x20
  103980:	48 c1 e8 10          	shr    rax,0x10
  103984:	48 89 c7             	mov    rdi,rax
  103987:	b8 20 68 10 00       	mov    eax,0x106820
  10398c:	41 ba 08 00 00 00    	mov    r10d,0x8
  103992:	66 44 89 00          	mov    WORD PTR [rax],r8w
  103996:	66 89 78 06          	mov    WORD PTR [rax+0x6],di
  10399a:	89 48 08             	mov    DWORD PTR [rax+0x8],ecx
  10399d:	c6 40 05 8e          	mov    BYTE PTR [rax+0x5],0x8e
  1039a1:	41 b9 ff ff ff ff    	mov    r9d,0xffffffff
  1039a7:	66 44 89 50 02       	mov    WORD PTR [rax+0x2],r10w
  1039ac:	c6 40 04 00          	mov    BYTE PTR [rax+0x4],0x0
  1039b0:	48 83 c0 10          	add    rax,0x10
  1039b4:	4c 89 0a             	mov    QWORD PTR [rdx],r9
  1039b7:	48 83 c2 08          	add    rdx,0x8
  1039bb:	48 39 c6             	cmp    rsi,rax
  1039be:	75 cc                	jne    10398c <kernel_longmode_entry+0xcc>
  1039c0:	b8 2c 4a 10 00       	mov    eax,0x104a2c
  1039c5:	b9 08 00 00 00       	mov    ecx,0x8
  1039ca:	be 08 00 00 00       	mov    esi,0x8
  1039cf:	66 89 05 4a 2e 00 00 	mov    WORD PTR [rip+0x2e4a],ax        # 106820 <_idt>
  1039d6:	48 89 c2             	mov    rdx,rax
  1039d9:	48 c1 e8 20          	shr    rax,0x20
  1039dd:	48 c1 ea 10          	shr    rdx,0x10
  1039e1:	89 05 41 2e 00 00    	mov    DWORD PTR [rip+0x2e41],eax        # 106828 <_idt+0x8>
  1039e7:	b8 33 4a 10 00       	mov    eax,0x104a33
  1039ec:	66 89 15 33 2e 00 00 	mov    WORD PTR [rip+0x2e33],dx        # 106826 <_idt+0x6>
  1039f3:	66 89 05 36 2e 00 00 	mov    WORD PTR [rip+0x2e36],ax        # 106830 <_idt+0x10>
  1039fa:	48 89 c2             	mov    rdx,rax
  1039fd:	48 c1 e8 20          	shr    rax,0x20
  103a01:	48 c1 ea 10          	shr    rdx,0x10
  103a05:	bf 08 00 00 00       	mov    edi,0x8
  103a0a:	89 05 28 2e 00 00    	mov    DWORD PTR [rip+0x2e28],eax        # 106838 <_idt+0x18>
  103a10:	b8 3a 4a 10 00       	mov    eax,0x104a3a
  103a15:	66 89 15 1a 2e 00 00 	mov    WORD PTR [rip+0x2e1a],dx        # 106836 <_idt+0x16>
  103a1c:	66 89 05 1d 2e 00 00 	mov    WORD PTR [rip+0x2e1d],ax        # 106840 <_idt+0x20>
  103a23:	48 89 c2             	mov    rdx,rax
  103a26:	48 c1 e8 20          	shr    rax,0x20
  103a2a:	48 c1 ea 10          	shr    rdx,0x10
  103a2e:	89 05 14 2e 00 00    	mov    DWORD PTR [rip+0x2e14],eax        # 106848 <_idt+0x28>
  103a34:	b8 41 4a 10 00       	mov    eax,0x104a41
  103a39:	66 89 15 06 2e 00 00 	mov    WORD PTR [rip+0x2e06],dx        # 106846 <_idt+0x26>
  103a40:	66 89 05 09 2e 00 00 	mov    WORD PTR [rip+0x2e09],ax        # 106850 <_idt+0x30>
  103a47:	48 89 c2             	mov    rdx,rax
  103a4a:	48 c1 e8 20          	shr    rax,0x20
  103a4e:	48 c1 ea 10          	shr    rdx,0x10
  103a52:	41 b8 08 00 00 00    	mov    r8d,0x8
  103a58:	89 05 fa 2d 00 00    	mov    DWORD PTR [rip+0x2dfa],eax        # 106858 <_idt+0x38>
  103a5e:	b8 48 4a 10 00       	mov    eax,0x104a48
  103a63:	66 89 15 ec 2d 00 00 	mov    WORD PTR [rip+0x2dec],dx        # 106856 <_idt+0x36>
  103a6a:	66 89 05 ef 2d 00 00 	mov    WORD PTR [rip+0x2def],ax        # 106860 <_idt+0x40>
  103a71:	48 89 c2             	mov    rdx,rax
  103a74:	48 c1 e8 20          	shr    rax,0x20
  103a78:	48 c1 ea 10          	shr    rdx,0x10
  103a7c:	89 05 e6 2d 00 00    	mov    DWORD PTR [rip+0x2de6],eax        # 106868 <_idt+0x48>
  103a82:	b8 4f 4a 10 00       	mov    eax,0x104a4f
  103a87:	66 89 15 d8 2d 00 00 	mov    WORD PTR [rip+0x2dd8],dx        # 106866 <_idt+0x46>
  103a8e:	48 89 c2             	mov    rdx,rax
  103a91:	41 b9 08 00 00 00    	mov    r9d,0x8
  103a97:	48 c1 ea 10          	shr    rdx,0x10
  103a9b:	66 89 05 ce 2d 00 00 	mov    WORD PTR [rip+0x2dce],ax        # 106870 <_idt+0x50>
  103aa2:	48 c1 e8 20          	shr    rax,0x20
  103aa6:	66 89 0d 75 2d 00 00 	mov    WORD PTR [rip+0x2d75],cx        # 106822 <_idt+0x2>
  103aad:	66 89 35 7e 2d 00 00 	mov    WORD PTR [rip+0x2d7e],si        # 106832 <_idt+0x12>
  103ab4:	41 ba 08 00 00 00    	mov    r10d,0x8
  103aba:	66 89 3d 81 2d 00 00 	mov    WORD PTR [rip+0x2d81],di        # 106842 <_idt+0x22>
  103ac1:	66 44 89 05 89 2d 00 	mov    WORD PTR [rip+0x2d89],r8w        # 106852 <_idt+0x32>
  103ac8:	00 
  103ac9:	41 bb 08 00 00 00    	mov    r11d,0x8
  103acf:	66 44 89 0d 8b 2d 00 	mov    WORD PTR [rip+0x2d8b],r9w        # 106862 <_idt+0x42>
  103ad6:	00 
  103ad7:	66 89 15 98 2d 00 00 	mov    WORD PTR [rip+0x2d98],dx        # 106876 <_idt+0x56>
  103ade:	41 bc 08 00 00 00    	mov    r12d,0x8
  103ae4:	c6 05 3a 2d 00 00 8e 	mov    BYTE PTR [rip+0x2d3a],0x8e        # 106825 <_idt+0x5>
  103aeb:	c6 05 32 2d 00 00 00 	mov    BYTE PTR [rip+0x2d32],0x0        # 106824 <_idt+0x4>
  103af2:	b9 08 00 00 00       	mov    ecx,0x8
  103af7:	c6 05 37 2d 00 00 8e 	mov    BYTE PTR [rip+0x2d37],0x8e        # 106835 <_idt+0x15>
  103afe:	c6 05 2f 2d 00 00 00 	mov    BYTE PTR [rip+0x2d2f],0x0        # 106834 <_idt+0x14>
  103b05:	be 08 00 00 00       	mov    esi,0x8
  103b0a:	c6 05 34 2d 00 00 8e 	mov    BYTE PTR [rip+0x2d34],0x8e        # 106845 <_idt+0x25>
  103b11:	c6 05 2c 2d 00 00 00 	mov    BYTE PTR [rip+0x2d2c],0x0        # 106844 <_idt+0x24>
  103b18:	bf 08 00 00 00       	mov    edi,0x8
  103b1d:	c6 05 31 2d 00 00 8e 	mov    BYTE PTR [rip+0x2d31],0x8e        # 106855 <_idt+0x35>
  103b24:	c6 05 29 2d 00 00 00 	mov    BYTE PTR [rip+0x2d29],0x0        # 106854 <_idt+0x34>
  103b2b:	41 b8 08 00 00 00    	mov    r8d,0x8
  103b31:	c6 05 2d 2d 00 00 8e 	mov    BYTE PTR [rip+0x2d2d],0x8e        # 106865 <_idt+0x45>
  103b38:	c6 05 25 2d 00 00 00 	mov    BYTE PTR [rip+0x2d25],0x0        # 106864 <_idt+0x44>
  103b3f:	41 b9 08 00 00 00    	mov    r9d,0x8
  103b45:	89 05 2d 2d 00 00    	mov    DWORD PTR [rip+0x2d2d],eax        # 106878 <_idt+0x58>
  103b4b:	b8 56 4a 10 00       	mov    eax,0x104a56
  103b50:	66 44 89 15 1a 2d 00 	mov    WORD PTR [rip+0x2d1a],r10w        # 106872 <_idt+0x52>
  103b57:	00 
  103b58:	66 89 05 21 2d 00 00 	mov    WORD PTR [rip+0x2d21],ax        # 106880 <_idt+0x60>
  103b5f:	48 89 c2             	mov    rdx,rax
  103b62:	48 c1 e8 20          	shr    rax,0x20
  103b66:	48 c1 ea 10          	shr    rdx,0x10
  103b6a:	89 05 18 2d 00 00    	mov    DWORD PTR [rip+0x2d18],eax        # 106888 <_idt+0x68>
  103b70:	b8 5d 4a 10 00       	mov    eax,0x104a5d
  103b75:	66 89 15 0a 2d 00 00 	mov    WORD PTR [rip+0x2d0a],dx        # 106886 <_idt+0x66>
  103b7c:	66 89 05 0d 2d 00 00 	mov    WORD PTR [rip+0x2d0d],ax        # 106890 <_idt+0x70>
  103b83:	48 89 c2             	mov    rdx,rax
  103b86:	48 c1 e8 20          	shr    rax,0x20
  103b8a:	48 c1 ea 10          	shr    rdx,0x10
  103b8e:	66 44 89 1d ec 2c 00 	mov    WORD PTR [rip+0x2cec],r11w        # 106882 <_idt+0x62>
  103b95:	00 
  103b96:	89 05 fc 2c 00 00    	mov    DWORD PTR [rip+0x2cfc],eax        # 106898 <_idt+0x78>
  103b9c:	b8 c0 49 10 00       	mov    eax,0x1049c0
  103ba1:	66 89 15 ee 2c 00 00 	mov    WORD PTR [rip+0x2cee],dx        # 106896 <_idt+0x76>
  103ba8:	66 89 05 f1 2c 00 00 	mov    WORD PTR [rip+0x2cf1],ax        # 1068a0 <_idt+0x80>
  103baf:	48 89 c2             	mov    rdx,rax
  103bb2:	48 c1 e8 20          	shr    rax,0x20
  103bb6:	89 05 ec 2c 00 00    	mov    DWORD PTR [rip+0x2cec],eax        # 1068a8 <_idt+0x88>
  103bbc:	b8 08 00 00 00       	mov    eax,0x8
  103bc1:	48 c1 ea 10          	shr    rdx,0x10
  103bc5:	66 89 05 d6 2c 00 00 	mov    WORD PTR [rip+0x2cd6],ax        # 1068a2 <_idt+0x82>
  103bcc:	b8 69 4a 10 00       	mov    eax,0x104a69
  103bd1:	66 89 15 ce 2c 00 00 	mov    WORD PTR [rip+0x2cce],dx        # 1068a6 <_idt+0x86>
  103bd8:	66 89 05 d1 2c 00 00 	mov    WORD PTR [rip+0x2cd1],ax        # 1068b0 <_idt+0x90>
  103bdf:	48 89 c2             	mov    rdx,rax
  103be2:	48 c1 e8 20          	shr    rax,0x20
  103be6:	89 05 cc 2c 00 00    	mov    DWORD PTR [rip+0x2ccc],eax        # 1068b8 <_idt+0x98>
  103bec:	b8 08 00 00 00       	mov    eax,0x8
  103bf1:	48 c1 ea 10          	shr    rdx,0x10
  103bf5:	66 89 05 b6 2c 00 00 	mov    WORD PTR [rip+0x2cb6],ax        # 1068b2 <_idt+0x92>
  103bfc:	b8 70 4a 10 00       	mov    eax,0x104a70
  103c01:	66 89 15 ae 2c 00 00 	mov    WORD PTR [rip+0x2cae],dx        # 1068b6 <_idt+0x96>
  103c08:	66 89 05 b1 2c 00 00 	mov    WORD PTR [rip+0x2cb1],ax        # 1068c0 <_idt+0xa0>
  103c0f:	48 89 c2             	mov    rdx,rax
  103c12:	48 c1 e8 20          	shr    rax,0x20
  103c16:	89 05 ac 2c 00 00    	mov    DWORD PTR [rip+0x2cac],eax        # 1068c8 <_idt+0xa8>
  103c1c:	b8 08 00 00 00       	mov    eax,0x8
  103c21:	48 c1 ea 10          	shr    rdx,0x10
  103c25:	66 89 05 96 2c 00 00 	mov    WORD PTR [rip+0x2c96],ax        # 1068c2 <_idt+0xa2>
  103c2c:	b8 75 4a 10 00       	mov    eax,0x104a75
  103c31:	66 44 89 25 59 2c 00 	mov    WORD PTR [rip+0x2c59],r12w        # 106892 <_idt+0x72>
  103c38:	00 
  103c39:	66 89 15 86 2c 00 00 	mov    WORD PTR [rip+0x2c86],dx        # 1068c6 <_idt+0xa6>
  103c40:	c6 05 2e 2c 00 00 8e 	mov    BYTE PTR [rip+0x2c2e],0x8e        # 106875 <_idt+0x55>
  103c47:	48 89 c2             	mov    rdx,rax
  103c4a:	c6 05 23 2c 00 00 00 	mov    BYTE PTR [rip+0x2c23],0x0        # 106874 <_idt+0x54>
  103c51:	c6 05 2d 2c 00 00 8e 	mov    BYTE PTR [rip+0x2c2d],0x8e        # 106885 <_idt+0x65>
  103c58:	48 c1 ea 10          	shr    rdx,0x10
  103c5c:	c6 05 21 2c 00 00 00 	mov    BYTE PTR [rip+0x2c21],0x0        # 106884 <_idt+0x64>
  103c63:	c6 05 2b 2c 00 00 8e 	mov    BYTE PTR [rip+0x2c2b],0x8e        # 106895 <_idt+0x75>
  103c6a:	41 ba 08 00 00 00    	mov    r10d,0x8
  103c70:	c6 05 1d 2c 00 00 00 	mov    BYTE PTR [rip+0x2c1d],0x0        # 106894 <_idt+0x74>
  103c77:	c6 05 27 2c 00 00 8e 	mov    BYTE PTR [rip+0x2c27],0x8e        # 1068a5 <_idt+0x85>
  103c7e:	41 bb 08 00 00 00    	mov    r11d,0x8
  103c84:	c6 05 19 2c 00 00 00 	mov    BYTE PTR [rip+0x2c19],0x0        # 1068a4 <_idt+0x84>
  103c8b:	c6 05 23 2c 00 00 8e 	mov    BYTE PTR [rip+0x2c23],0x8e        # 1068b5 <_idt+0x95>
  103c92:	41 bc 08 00 00 00    	mov    r12d,0x8
  103c98:	c6 05 15 2c 00 00 00 	mov    BYTE PTR [rip+0x2c15],0x0        # 1068b4 <_idt+0x94>
  103c9f:	c6 05 1f 2c 00 00 8e 	mov    BYTE PTR [rip+0x2c1f],0x8e        # 1068c5 <_idt+0xa5>
  103ca6:	c6 05 17 2c 00 00 00 	mov    BYTE PTR [rip+0x2c17],0x0        # 1068c4 <_idt+0xa4>
  103cad:	66 89 05 1c 2c 00 00 	mov    WORD PTR [rip+0x2c1c],ax        # 1068d0 <_idt+0xb0>
  103cb4:	48 c1 e8 20          	shr    rax,0x20
  103cb8:	89 05 1a 2c 00 00    	mov    DWORD PTR [rip+0x2c1a],eax        # 1068d8 <_idt+0xb8>
  103cbe:	b8 08 00 00 00       	mov    eax,0x8
  103cc3:	66 89 15 0c 2c 00 00 	mov    WORD PTR [rip+0x2c0c],dx        # 1068d6 <_idt+0xb6>
  103cca:	66 89 05 01 2c 00 00 	mov    WORD PTR [rip+0x2c01],ax        # 1068d2 <_idt+0xb2>
  103cd1:	b8 7a 4a 10 00       	mov    eax,0x104a7a
  103cd6:	66 89 0d 35 2c 00 00 	mov    WORD PTR [rip+0x2c35],cx        # 106912 <_idt+0xf2>
  103cdd:	66 89 05 fc 2b 00 00 	mov    WORD PTR [rip+0x2bfc],ax        # 1068e0 <_idt+0xc0>
  103ce4:	48 89 c2             	mov    rdx,rax
  103ce7:	48 c1 e8 20          	shr    rax,0x20
  103ceb:	89 05 f7 2b 00 00    	mov    DWORD PTR [rip+0x2bf7],eax        # 1068e8 <_idt+0xc8>
  103cf1:	b8 08 00 00 00       	mov    eax,0x8
  103cf6:	48 c1 ea 10          	shr    rdx,0x10
  103cfa:	66 89 05 e1 2b 00 00 	mov    WORD PTR [rip+0x2be1],ax        # 1068e2 <_idt+0xc2>
  103d01:	b8 7f 4a 10 00       	mov    eax,0x104a7f
  103d06:	66 89 15 d9 2b 00 00 	mov    WORD PTR [rip+0x2bd9],dx        # 1068e6 <_idt+0xc6>
  103d0d:	66 89 05 dc 2b 00 00 	mov    WORD PTR [rip+0x2bdc],ax        # 1068f0 <_idt+0xd0>
  103d14:	48 89 c2             	mov    rdx,rax
  103d17:	48 c1 e8 20          	shr    rax,0x20
  103d1b:	89 05 d7 2b 00 00    	mov    DWORD PTR [rip+0x2bd7],eax        # 1068f8 <_idt+0xd8>
  103d21:	b8 08 00 00 00       	mov    eax,0x8
  103d26:	48 c1 ea 10          	shr    rdx,0x10
  103d2a:	66 89 05 c1 2b 00 00 	mov    WORD PTR [rip+0x2bc1],ax        # 1068f2 <_idt+0xd2>
  103d31:	b8 84 4a 10 00       	mov    eax,0x104a84
  103d36:	66 89 15 b9 2b 00 00 	mov    WORD PTR [rip+0x2bb9],dx        # 1068f6 <_idt+0xd6>
  103d3d:	48 89 c2             	mov    rdx,rax
  103d40:	66 89 05 b9 2b 00 00 	mov    WORD PTR [rip+0x2bb9],ax        # 106900 <_idt+0xe0>
  103d47:	48 c1 e8 20          	shr    rax,0x20
  103d4b:	48 c1 ea 10          	shr    rdx,0x10
  103d4f:	89 05 b3 2b 00 00    	mov    DWORD PTR [rip+0x2bb3],eax        # 106908 <_idt+0xe8>
  103d55:	b8 89 4a 10 00       	mov    eax,0x104a89
  103d5a:	66 89 15 a5 2b 00 00 	mov    WORD PTR [rip+0x2ba5],dx        # 106906 <_idt+0xe6>
  103d61:	ba 08 00 00 00       	mov    edx,0x8
  103d66:	66 89 05 a3 2b 00 00 	mov    WORD PTR [rip+0x2ba3],ax        # 106910 <_idt+0xf0>
  103d6d:	66 89 15 8e 2b 00 00 	mov    WORD PTR [rip+0x2b8e],dx        # 106902 <_idt+0xe2>
  103d74:	48 89 c2             	mov    rdx,rax
  103d77:	48 c1 e8 20          	shr    rax,0x20
  103d7b:	48 c1 ea 10          	shr    rdx,0x10
  103d7f:	89 05 93 2b 00 00    	mov    DWORD PTR [rip+0x2b93],eax        # 106918 <_idt+0xf8>
  103d85:	b8 90 4a 10 00       	mov    eax,0x104a90
  103d8a:	66 89 15 85 2b 00 00 	mov    WORD PTR [rip+0x2b85],dx        # 106916 <_idt+0xf6>
  103d91:	48 89 c2             	mov    rdx,rax
  103d94:	66 89 05 85 2b 00 00 	mov    WORD PTR [rip+0x2b85],ax        # 106920 <_idt+0x100>
  103d9b:	48 c1 ea 10          	shr    rdx,0x10
  103d9f:	48 c1 e8 20          	shr    rax,0x20
  103da3:	c6 05 2b 2b 00 00 8e 	mov    BYTE PTR [rip+0x2b2b],0x8e        # 1068d5 <_idt+0xb5>
  103daa:	66 89 15 75 2b 00 00 	mov    WORD PTR [rip+0x2b75],dx        # 106926 <_idt+0x106>
  103db1:	c6 05 1c 2b 00 00 00 	mov    BYTE PTR [rip+0x2b1c],0x0        # 1068d4 <_idt+0xb4>
  103db8:	b9 08 00 00 00       	mov    ecx,0x8
  103dbd:	c6 05 21 2b 00 00 8e 	mov    BYTE PTR [rip+0x2b21],0x8e        # 1068e5 <_idt+0xc5>
  103dc4:	c6 05 19 2b 00 00 00 	mov    BYTE PTR [rip+0x2b19],0x0        # 1068e4 <_idt+0xc4>
  103dcb:	c6 05 23 2b 00 00 8e 	mov    BYTE PTR [rip+0x2b23],0x8e        # 1068f5 <_idt+0xd5>
  103dd2:	c6 05 1b 2b 00 00 00 	mov    BYTE PTR [rip+0x2b1b],0x0        # 1068f4 <_idt+0xd4>
  103dd9:	c6 05 25 2b 00 00 8e 	mov    BYTE PTR [rip+0x2b25],0x8e        # 106905 <_idt+0xe5>
  103de0:	c6 05 1d 2b 00 00 00 	mov    BYTE PTR [rip+0x2b1d],0x0        # 106904 <_idt+0xe4>
  103de7:	c6 05 27 2b 00 00 8e 	mov    BYTE PTR [rip+0x2b27],0x8e        # 106915 <_idt+0xf5>
  103dee:	c6 05 1f 2b 00 00 00 	mov    BYTE PTR [rip+0x2b1f],0x0        # 106914 <_idt+0xf4>
  103df5:	89 05 2d 2b 00 00    	mov    DWORD PTR [rip+0x2b2d],eax        # 106928 <_idt+0x108>
  103dfb:	b8 97 4a 10 00       	mov    eax,0x104a97
  103e00:	66 89 35 1b 2b 00 00 	mov    WORD PTR [rip+0x2b1b],si        # 106922 <_idt+0x102>
  103e07:	66 89 05 22 2b 00 00 	mov    WORD PTR [rip+0x2b22],ax        # 106930 <_idt+0x110>
  103e0e:	48 89 c2             	mov    rdx,rax
  103e11:	48 c1 e8 20          	shr    rax,0x20
  103e15:	48 c1 ea 10          	shr    rdx,0x10
  103e19:	89 05 19 2b 00 00    	mov    DWORD PTR [rip+0x2b19],eax        # 106938 <_idt+0x118>
  103e1f:	b8 9f 4a 10 00       	mov    eax,0x104a9f
  103e24:	66 89 15 0b 2b 00 00 	mov    WORD PTR [rip+0x2b0b],dx        # 106936 <_idt+0x116>
  103e2b:	66 89 05 0e 2b 00 00 	mov    WORD PTR [rip+0x2b0e],ax        # 106940 <_idt+0x120>
  103e32:	48 89 c2             	mov    rdx,rax
  103e35:	48 c1 e8 20          	shr    rax,0x20
  103e39:	48 c1 ea 10          	shr    rdx,0x10
  103e3d:	66 89 3d ee 2a 00 00 	mov    WORD PTR [rip+0x2aee],di        # 106932 <_idt+0x112>
  103e44:	89 05 fe 2a 00 00    	mov    DWORD PTR [rip+0x2afe],eax        # 106948 <_idt+0x128>
  103e4a:	b8 a9 4a 10 00       	mov    eax,0x104aa9
  103e4f:	66 89 15 f0 2a 00 00 	mov    WORD PTR [rip+0x2af0],dx        # 106946 <_idt+0x126>
  103e56:	66 89 05 f3 2a 00 00 	mov    WORD PTR [rip+0x2af3],ax        # 106950 <_idt+0x130>
  103e5d:	48 89 c2             	mov    rdx,rax
  103e60:	48 c1 e8 20          	shr    rax,0x20
  103e64:	48 c1 ea 10          	shr    rdx,0x10
  103e68:	89 05 ea 2a 00 00    	mov    DWORD PTR [rip+0x2aea],eax        # 106958 <_idt+0x138>
  103e6e:	b8 b3 4a 10 00       	mov    eax,0x104ab3
  103e73:	66 89 15 dc 2a 00 00 	mov    WORD PTR [rip+0x2adc],dx        # 106956 <_idt+0x136>
  103e7a:	66 89 05 df 2a 00 00 	mov    WORD PTR [rip+0x2adf],ax        # 106960 <_idt+0x140>
  103e81:	48 89 c2             	mov    rdx,rax
  103e84:	48 c1 e8 20          	shr    rax,0x20
  103e88:	48 c1 ea 10          	shr    rdx,0x10
  103e8c:	66 44 89 05 ae 2a 00 	mov    WORD PTR [rip+0x2aae],r8w        # 106942 <_idt+0x122>
  103e93:	00 
  103e94:	89 05 ce 2a 00 00    	mov    DWORD PTR [rip+0x2ace],eax        # 106968 <_idt+0x148>
  103e9a:	b8 bd 4a 10 00       	mov    eax,0x104abd
  103e9f:	66 89 15 c0 2a 00 00 	mov    WORD PTR [rip+0x2ac0],dx        # 106966 <_idt+0x146>
  103ea6:	66 89 05 c3 2a 00 00 	mov    WORD PTR [rip+0x2ac3],ax        # 106970 <_idt+0x150>
  103ead:	48 89 c2             	mov    rdx,rax
  103eb0:	48 c1 e8 20          	shr    rax,0x20
  103eb4:	48 c1 ea 10          	shr    rdx,0x10
  103eb8:	89 05 ba 2a 00 00    	mov    DWORD PTR [rip+0x2aba],eax        # 106978 <_idt+0x158>
  103ebe:	b8 c7 4a 10 00       	mov    eax,0x104ac7
  103ec3:	66 44 89 0d 87 2a 00 	mov    WORD PTR [rip+0x2a87],r9w        # 106952 <_idt+0x132>
  103eca:	00 
  103ecb:	66 44 89 15 8f 2a 00 	mov    WORD PTR [rip+0x2a8f],r10w        # 106962 <_idt+0x142>
  103ed2:	00 
  103ed3:	be 08 00 00 00       	mov    esi,0x8
  103ed8:	66 89 15 97 2a 00 00 	mov    WORD PTR [rip+0x2a97],dx        # 106976 <_idt+0x156>
  103edf:	66 44 89 1d 8b 2a 00 	mov    WORD PTR [rip+0x2a8b],r11w        # 106972 <_idt+0x152>
  103ee6:	00 
  103ee7:	48 89 c2             	mov    rdx,rax
  103eea:	c6 05 34 2a 00 00 8e 	mov    BYTE PTR [rip+0x2a34],0x8e        # 106925 <_idt+0x105>
  103ef1:	c6 05 2c 2a 00 00 00 	mov    BYTE PTR [rip+0x2a2c],0x0        # 106924 <_idt+0x104>
  103ef8:	48 c1 ea 10          	shr    rdx,0x10
  103efc:	c6 05 32 2a 00 00 8e 	mov    BYTE PTR [rip+0x2a32],0x8e        # 106935 <_idt+0x115>
  103f03:	c6 05 2a 2a 00 00 00 	mov    BYTE PTR [rip+0x2a2a],0x0        # 106934 <_idt+0x114>
  103f0a:	bf 08 00 00 00       	mov    edi,0x8
  103f0f:	c6 05 2f 2a 00 00 8e 	mov    BYTE PTR [rip+0x2a2f],0x8e        # 106945 <_idt+0x125>
  103f16:	c6 05 27 2a 00 00 00 	mov    BYTE PTR [rip+0x2a27],0x0        # 106944 <_idt+0x124>
  103f1d:	41 b8 08 00 00 00    	mov    r8d,0x8
  103f23:	c6 05 2b 2a 00 00 8e 	mov    BYTE PTR [rip+0x2a2b],0x8e        # 106955 <_idt+0x135>
  103f2a:	c6 05 23 2a 00 00 00 	mov    BYTE PTR [rip+0x2a23],0x0        # 106954 <_idt+0x134>
  103f31:	41 b9 ff 0f 00 00    	mov    r9d,0xfff
  103f37:	c6 05 27 2a 00 00 8e 	mov    BYTE PTR [rip+0x2a27],0x8e        # 106965 <_idt+0x145>
  103f3e:	c6 05 1f 2a 00 00 00 	mov    BYTE PTR [rip+0x2a1f],0x0        # 106964 <_idt+0x144>
  103f45:	c6 05 29 2a 00 00 8e 	mov    BYTE PTR [rip+0x2a29],0x8e        # 106975 <_idt+0x155>
  103f4c:	c6 05 21 2a 00 00 00 	mov    BYTE PTR [rip+0x2a21],0x0        # 106974 <_idt+0x154>
  103f53:	66 89 05 26 2a 00 00 	mov    WORD PTR [rip+0x2a26],ax        # 106980 <_idt+0x160>
  103f5a:	48 c1 e8 20          	shr    rax,0x20
  103f5e:	66 89 15 21 2a 00 00 	mov    WORD PTR [rip+0x2a21],dx        # 106986 <_idt+0x166>
  103f65:	89 05 1d 2a 00 00    	mov    DWORD PTR [rip+0x2a1d],eax        # 106988 <_idt+0x168>
  103f6b:	b8 d1 4a 10 00       	mov    eax,0x104ad1
  103f70:	66 44 89 25 0a 2a 00 	mov    WORD PTR [rip+0x2a0a],r12w        # 106982 <_idt+0x162>
  103f77:	00 
  103f78:	66 89 05 11 2a 00 00 	mov    WORD PTR [rip+0x2a11],ax        # 106990 <_idt+0x170>
  103f7f:	48 89 c2             	mov    rdx,rax
  103f82:	48 c1 e8 20          	shr    rax,0x20
  103f86:	89 05 0c 2a 00 00    	mov    DWORD PTR [rip+0x2a0c],eax        # 106998 <_idt+0x178>
  103f8c:	b8 08 00 00 00       	mov    eax,0x8
  103f91:	48 c1 ea 10          	shr    rdx,0x10
  103f95:	66 89 05 f6 29 00 00 	mov    WORD PTR [rip+0x29f6],ax        # 106992 <_idt+0x172>
  103f9c:	b8 db 4a 10 00       	mov    eax,0x104adb
  103fa1:	66 89 15 ee 29 00 00 	mov    WORD PTR [rip+0x29ee],dx        # 106996 <_idt+0x176>
  103fa8:	66 89 05 f1 29 00 00 	mov    WORD PTR [rip+0x29f1],ax        # 1069a0 <_idt+0x180>
  103faf:	48 89 c2             	mov    rdx,rax
  103fb2:	48 c1 e8 20          	shr    rax,0x20
  103fb6:	89 05 ec 29 00 00    	mov    DWORD PTR [rip+0x29ec],eax        # 1069a8 <_idt+0x188>
  103fbc:	b8 08 00 00 00       	mov    eax,0x8
  103fc1:	48 c1 ea 10          	shr    rdx,0x10
  103fc5:	66 89 05 d6 29 00 00 	mov    WORD PTR [rip+0x29d6],ax        # 1069a2 <_idt+0x182>
  103fcc:	b8 e5 4a 10 00       	mov    eax,0x104ae5
  103fd1:	66 89 15 ce 29 00 00 	mov    WORD PTR [rip+0x29ce],dx        # 1069a6 <_idt+0x186>
  103fd8:	66 89 05 d1 29 00 00 	mov    WORD PTR [rip+0x29d1],ax        # 1069b0 <_idt+0x190>
  103fdf:	48 89 c2             	mov    rdx,rax
  103fe2:	48 c1 e8 20          	shr    rax,0x20
  103fe6:	89 05 cc 29 00 00    	mov    DWORD PTR [rip+0x29cc],eax        # 1069b8 <_idt+0x198>
  103fec:	b8 08 00 00 00       	mov    eax,0x8
  103ff1:	48 c1 ea 10          	shr    rdx,0x10
  103ff5:	66 89 05 b6 29 00 00 	mov    WORD PTR [rip+0x29b6],ax        # 1069b2 <_idt+0x192>
  103ffc:	b8 ef 4a 10 00       	mov    eax,0x104aef
  104001:	66 89 15 ae 29 00 00 	mov    WORD PTR [rip+0x29ae],dx        # 1069b6 <_idt+0x196>
  104008:	66 89 05 b1 29 00 00 	mov    WORD PTR [rip+0x29b1],ax        # 1069c0 <_idt+0x1a0>
  10400f:	48 89 c2             	mov    rdx,rax
  104012:	48 c1 e8 20          	shr    rax,0x20
  104016:	89 05 ac 29 00 00    	mov    DWORD PTR [rip+0x29ac],eax        # 1069c8 <_idt+0x1a8>
  10401c:	b8 08 00 00 00       	mov    eax,0x8
  104021:	48 c1 ea 10          	shr    rdx,0x10
  104025:	66 89 05 96 29 00 00 	mov    WORD PTR [rip+0x2996],ax        # 1069c2 <_idt+0x1a2>
  10402c:	b8 f9 4a 10 00       	mov    eax,0x104af9
  104031:	66 89 15 8e 29 00 00 	mov    WORD PTR [rip+0x298e],dx        # 1069c6 <_idt+0x1a6>
  104038:	48 89 c2             	mov    rdx,rax
  10403b:	66 89 05 8e 29 00 00 	mov    WORD PTR [rip+0x298e],ax        # 1069d0 <_idt+0x1b0>
  104042:	48 c1 e8 20          	shr    rax,0x20
  104046:	48 c1 ea 10          	shr    rdx,0x10
  10404a:	c6 05 34 29 00 00 8e 	mov    BYTE PTR [rip+0x2934],0x8e        # 106985 <_idt+0x165>
  104051:	c6 05 2c 29 00 00 00 	mov    BYTE PTR [rip+0x292c],0x0        # 106984 <_idt+0x164>
  104058:	66 89 15 77 29 00 00 	mov    WORD PTR [rip+0x2977],dx        # 1069d6 <_idt+0x1b6>
  10405f:	c6 05 2f 29 00 00 8e 	mov    BYTE PTR [rip+0x292f],0x8e        # 106995 <_idt+0x175>
  104066:	c6 05 27 29 00 00 00 	mov    BYTE PTR [rip+0x2927],0x0        # 106994 <_idt+0x174>
  10406d:	c6 05 31 29 00 00 8e 	mov    BYTE PTR [rip+0x2931],0x8e        # 1069a5 <_idt+0x185>
  104074:	c6 05 29 29 00 00 00 	mov    BYTE PTR [rip+0x2929],0x0        # 1069a4 <_idt+0x184>
  10407b:	c6 05 33 29 00 00 8e 	mov    BYTE PTR [rip+0x2933],0x8e        # 1069b5 <_idt+0x195>
  104082:	c6 05 2b 29 00 00 00 	mov    BYTE PTR [rip+0x292b],0x0        # 1069b4 <_idt+0x194>
  104089:	c6 05 35 29 00 00 8e 	mov    BYTE PTR [rip+0x2935],0x8e        # 1069c5 <_idt+0x1a5>
  104090:	c6 05 2d 29 00 00 00 	mov    BYTE PTR [rip+0x292d],0x0        # 1069c4 <_idt+0x1a4>
  104097:	89 05 3b 29 00 00    	mov    DWORD PTR [rip+0x293b],eax        # 1069d8 <_idt+0x1b8>
  10409d:	b8 08 00 00 00       	mov    eax,0x8
  1040a2:	66 89 05 29 29 00 00 	mov    WORD PTR [rip+0x2929],ax        # 1069d2 <_idt+0x1b2>
  1040a9:	b8 03 4b 10 00       	mov    eax,0x104b03
  1040ae:	66 89 0d 4d 29 00 00 	mov    WORD PTR [rip+0x294d],cx        # 106a02 <_idt+0x1e2>
  1040b5:	66 89 05 24 29 00 00 	mov    WORD PTR [rip+0x2924],ax        # 1069e0 <_idt+0x1c0>
  1040bc:	48 89 c2             	mov    rdx,rax
  1040bf:	48 c1 e8 20          	shr    rax,0x20
  1040c3:	89 05 1f 29 00 00    	mov    DWORD PTR [rip+0x291f],eax        # 1069e8 <_idt+0x1c8>
  1040c9:	b8 08 00 00 00       	mov    eax,0x8
  1040ce:	48 c1 ea 10          	shr    rdx,0x10
  1040d2:	66 89 05 09 29 00 00 	mov    WORD PTR [rip+0x2909],ax        # 1069e2 <_idt+0x1c2>
  1040d9:	b8 0d 4b 10 00       	mov    eax,0x104b0d
  1040de:	66 89 15 01 29 00 00 	mov    WORD PTR [rip+0x2901],dx        # 1069e6 <_idt+0x1c6>
  1040e5:	48 89 c2             	mov    rdx,rax
  1040e8:	66 89 05 01 29 00 00 	mov    WORD PTR [rip+0x2901],ax        # 1069f0 <_idt+0x1d0>
  1040ef:	48 c1 e8 20          	shr    rax,0x20
  1040f3:	48 c1 ea 10          	shr    rdx,0x10
  1040f7:	89 05 fb 28 00 00    	mov    DWORD PTR [rip+0x28fb],eax        # 1069f8 <_idt+0x1d8>
  1040fd:	b8 17 4b 10 00       	mov    eax,0x104b17
  104102:	66 89 15 ed 28 00 00 	mov    WORD PTR [rip+0x28ed],dx        # 1069f6 <_idt+0x1d6>
  104109:	ba 08 00 00 00       	mov    edx,0x8
  10410e:	66 89 05 eb 28 00 00 	mov    WORD PTR [rip+0x28eb],ax        # 106a00 <_idt+0x1e0>
  104115:	66 89 15 d6 28 00 00 	mov    WORD PTR [rip+0x28d6],dx        # 1069f2 <_idt+0x1d2>
  10411c:	48 89 c2             	mov    rdx,rax
  10411f:	48 c1 e8 20          	shr    rax,0x20
  104123:	48 c1 ea 10          	shr    rdx,0x10
  104127:	89 05 db 28 00 00    	mov    DWORD PTR [rip+0x28db],eax        # 106a08 <_idt+0x1e8>
  10412d:	b8 21 4b 10 00       	mov    eax,0x104b21
  104132:	66 89 15 cd 28 00 00 	mov    WORD PTR [rip+0x28cd],dx        # 106a06 <_idt+0x1e6>
  104139:	66 89 05 d0 28 00 00 	mov    WORD PTR [rip+0x28d0],ax        # 106a10 <_idt+0x1f0>
  104140:	48 89 c2             	mov    rdx,rax
  104143:	48 c1 e8 20          	shr    rax,0x20
  104147:	48 c1 ea 10          	shr    rdx,0x10
  10414b:	66 89 35 c0 28 00 00 	mov    WORD PTR [rip+0x28c0],si        # 106a12 <_idt+0x1f2>
  104152:	89 05 c0 28 00 00    	mov    DWORD PTR [rip+0x28c0],eax        # 106a18 <_idt+0x1f8>
  104158:	b8 2b 4b 10 00       	mov    eax,0x104b2b
  10415d:	66 89 15 b2 28 00 00 	mov    WORD PTR [rip+0x28b2],dx        # 106a16 <_idt+0x1f6>
  104164:	48 89 c2             	mov    rdx,rax
  104167:	66 89 05 b2 28 00 00 	mov    WORD PTR [rip+0x28b2],ax        # 106a20 <_idt+0x200>
  10416e:	c6 05 60 28 00 00 8e 	mov    BYTE PTR [rip+0x2860],0x8e        # 1069d5 <_idt+0x1b5>
  104175:	48 c1 ea 10          	shr    rdx,0x10
  104179:	48 c1 e8 20          	shr    rax,0x20
  10417d:	c6 05 50 28 00 00 00 	mov    BYTE PTR [rip+0x2850],0x0        # 1069d4 <_idt+0x1b4>
  104184:	89 05 9e 28 00 00    	mov    DWORD PTR [rip+0x289e],eax        # 106a28 <_idt+0x208>
  10418a:	b8 33 4b 10 00       	mov    eax,0x104b33
  10418f:	66 89 15 90 28 00 00 	mov    WORD PTR [rip+0x2890],dx        # 106a26 <_idt+0x206>
  104196:	48 89 c2             	mov    rdx,rax
  104199:	c6 05 45 28 00 00 8e 	mov    BYTE PTR [rip+0x2845],0x8e        # 1069e5 <_idt+0x1c5>
  1041a0:	c6 05 3d 28 00 00 00 	mov    BYTE PTR [rip+0x283d],0x0        # 1069e4 <_idt+0x1c4>
  1041a7:	48 c1 ea 10          	shr    rdx,0x10
  1041ab:	c6 05 43 28 00 00 8e 	mov    BYTE PTR [rip+0x2843],0x8e        # 1069f5 <_idt+0x1d5>
  1041b2:	c6 05 3b 28 00 00 00 	mov    BYTE PTR [rip+0x283b],0x0        # 1069f4 <_idt+0x1d4>
  1041b9:	c6 05 45 28 00 00 8e 	mov    BYTE PTR [rip+0x2845],0x8e        # 106a05 <_idt+0x1e5>
  1041c0:	c6 05 3d 28 00 00 00 	mov    BYTE PTR [rip+0x283d],0x0        # 106a04 <_idt+0x1e4>
  1041c7:	c6 05 47 28 00 00 8e 	mov    BYTE PTR [rip+0x2847],0x8e        # 106a15 <_idt+0x1f5>
  1041ce:	c6 05 3f 28 00 00 00 	mov    BYTE PTR [rip+0x283f],0x0        # 106a14 <_idt+0x1f4>
  1041d5:	48 c7 05 40 1e 00 00 	mov    QWORD PTR [rip+0x1e40],0x104770        # 106020 <_interrupt_handlers>
  1041dc:	70 47 10 00 
  1041e0:	48 c7 05 3d 1e 00 00 	mov    QWORD PTR [rip+0x1e3d],0x1046e0        # 106028 <_interrupt_handlers+0x8>
  1041e7:	e0 46 10 00 
  1041eb:	c6 05 33 28 00 00 8e 	mov    BYTE PTR [rip+0x2833],0x8e        # 106a25 <_idt+0x205>
  1041f2:	66 89 05 37 28 00 00 	mov    WORD PTR [rip+0x2837],ax        # 106a30 <_idt+0x210>
  1041f9:	48 c1 e8 20          	shr    rax,0x20
  1041fd:	66 89 3d 1e 28 00 00 	mov    WORD PTR [rip+0x281e],di        # 106a22 <_idt+0x202>
  104204:	c6 05 19 28 00 00 00 	mov    BYTE PTR [rip+0x2819],0x0        # 106a24 <_idt+0x204>
  10420b:	66 89 15 24 28 00 00 	mov    WORD PTR [rip+0x2824],dx        # 106a36 <_idt+0x216>
  104212:	89 05 20 28 00 00    	mov    DWORD PTR [rip+0x2820],eax        # 106a38 <_idt+0x218>
  104218:	c6 05 16 28 00 00 8e 	mov    BYTE PTR [rip+0x2816],0x8e        # 106a35 <_idt+0x215>
  10421f:	66 44 89 05 0b 28 00 	mov    WORD PTR [rip+0x280b],r8w        # 106a32 <_idt+0x212>
  104226:	00 
  104227:	c6 05 06 28 00 00 00 	mov    BYTE PTR [rip+0x2806],0x0        # 106a34 <_idt+0x214>
  10422e:	66 44 89 4c 24 30    	mov    WORD PTR [rsp+0x30],r9w
  104234:	48 c7 44 24 32 20 68 	mov    QWORD PTR [rsp+0x32],0x106820
  10423b:	10 00 
  10423d:	0f 01 5c 24 30       	lidt   [rsp+0x30]
  104242:	fb                   	sti    
  104243:	31 c0                	xor    eax,eax
  104245:	be e5 0d 10 00       	mov    esi,0x100de5
  10424a:	bf 20 78 10 00       	mov    edi,0x107820
  10424f:	e8 fc ea ff ff       	call   102d50 <klog_write_fmt>
  104254:	b8 00 50 10 00       	mov    eax,0x105000
  104259:	ba 00 00 11 00       	mov    edx,0x110000
  10425e:	be f5 0d 10 00       	mov    esi,0x100df5
  104263:	48 83 c8 03          	or     rax,0x3
  104267:	bf 20 78 10 00       	mov    edi,0x107820
  10426c:	c7 05 8a 1d 00 00 02 	mov    DWORD PTR [rip+0x1d8a],0x2        # 106000 <g_current_page_index>
  104273:	00 00 00 
  104276:	48 89 05 8b dd 00 00 	mov    QWORD PTR [rip+0xdd8b],rax        # 112008 <g_p2_table+0x8>
  10427d:	31 c0                	xor    eax,eax
  10427f:	4c 8d 64 24 30       	lea    r12,[rsp+0x30]
  104284:	e8 c7 ea ff ff       	call   102d50 <klog_write_fmt>
  104289:	31 c0                	xor    eax,eax
  10428b:	ba 00 10 11 00       	mov    edx,0x111000
  104290:	be 0e 0e 10 00       	mov    esi,0x100e0e
  104295:	bf 20 78 10 00       	mov    edi,0x107820
  10429a:	e8 b1 ea ff ff       	call   102d50 <klog_write_fmt>
  10429f:	31 c0                	xor    eax,eax
  1042a1:	ba 00 20 11 00       	mov    edx,0x112000
  1042a6:	be 27 0e 10 00       	mov    esi,0x100e27
  1042ab:	bf 20 78 10 00       	mov    edi,0x107820
  1042b0:	e8 9b ea ff ff       	call   102d50 <klog_write_fmt>
  1042b5:	31 c0                	xor    eax,eax
  1042b7:	bf 20 78 10 00       	mov    edi,0x107820
  1042bc:	ba 10 33 10 00       	mov    edx,0x103310
  1042c1:	be 40 0e 10 00       	mov    esi,0x100e40
  1042c6:	e8 85 ea ff ff       	call   102d50 <klog_write_fmt>
  1042cb:	31 c0                	xor    eax,eax
  1042cd:	b9 07 00 00 00       	mov    ecx,0x7
  1042d2:	4c 89 e7             	mov    rdi,r12
  1042d5:	48 81 fb 89 62 d7 36 	cmp    rbx,0x36d76289
  1042dc:	f3 48 ab             	rep stos QWORD PTR es:[rdi],rax
  1042df:	74 20                	je     104301 <kernel_longmode_entry+0xa41>
  1042e1:	be 70 12 10 00       	mov    esi,0x101270
  1042e6:	bf 20 78 10 00       	mov    edi,0x107820
  1042eb:	e8 60 ea ff ff       	call   102d50 <klog_write_fmt>
  1042f0:	be 20 78 10 00       	mov    esi,0x107820
  1042f5:	bf 48 fd 10 00       	mov    edi,0x10fd48
  1042fa:	e8 01 f2 ff ff       	call   103500 <redraw_vga_text_terminal_if_log_is_dirty>
  1042ff:	fa                   	cli    
  104300:	f4                   	hlt    
  104301:	40 f6 c5 07          	test   bpl,0x7
  104305:	0f 85 c8 02 00 00    	jne    1045d3 <kernel_longmode_entry+0xd13>
  10430b:	8b 55 00             	mov    edx,DWORD PTR [rbp+0x0]
  10430e:	31 c0                	xor    eax,eax
  104310:	be 72 0e 10 00       	mov    esi,0x100e72
  104315:	bf 20 78 10 00       	mov    edi,0x107820
  10431a:	48 8d 5d 08          	lea    rbx,[rbp+0x8]
  10431e:	e8 2d ea ff ff       	call   102d50 <klog_write_fmt>
  104323:	8b 55 08             	mov    edx,DWORD PTR [rbp+0x8]
  104326:	85 d2                	test   edx,edx
  104328:	75 26                	jne    104350 <kernel_longmode_entry+0xa90>
  10432a:	e9 c8 00 00 00       	jmp    1043f7 <kernel_longmode_entry+0xb37>
  10432f:	90                   	nop
  104330:	83 f8 0f             	cmp    eax,0xf
  104333:	74 71                	je     1043a6 <kernel_longmode_entry+0xae6>
  104335:	83 f8 08             	cmp    eax,0x8
  104338:	74 53                	je     10438d <kernel_longmode_entry+0xacd>
  10433a:	8b 43 04             	mov    eax,DWORD PTR [rbx+0x4]
  10433d:	83 c0 07             	add    eax,0x7
  104340:	83 e0 f8             	and    eax,0xfffffff8
  104343:	48 01 c3             	add    rbx,rax
  104346:	8b 13                	mov    edx,DWORD PTR [rbx]
  104348:	85 d2                	test   edx,edx
  10434a:	0f 84 a7 00 00 00    	je     1043f7 <kernel_longmode_entry+0xb37>
  104350:	31 c0                	xor    eax,eax
  104352:	be 8c 0e 10 00       	mov    esi,0x100e8c
  104357:	bf 20 78 10 00       	mov    edi,0x107820
  10435c:	e8 ef e9 ff ff       	call   102d50 <klog_write_fmt>
  104361:	8b 03                	mov    eax,DWORD PTR [rbx]
  104363:	83 f8 0e             	cmp    eax,0xe
  104366:	75 c8                	jne    104330 <kernel_longmode_entry+0xa70>
  104368:	48 8d 6b 08          	lea    rbp,[rbx+0x8]
  10436c:	be e0 12 10 00       	mov    esi,0x1012e0
  104371:	bf 20 78 10 00       	mov    edi,0x107820
  104376:	31 c0                	xor    eax,eax
  104378:	48 89 ea             	mov    rdx,rbp
  10437b:	e8 d0 e9 ff ff       	call   102d50 <klog_write_fmt>
  104380:	4c 89 e6             	mov    rsi,r12
  104383:	48 89 ef             	mov    rdi,rbp
  104386:	e8 35 f3 ff ff       	call   1036c0 <parse_root_system_descriptor>
  10438b:	eb ad                	jmp    10433a <kernel_longmode_entry+0xa7a>
  10438d:	80 7b 1d 01          	cmp    BYTE PTR [rbx+0x1d],0x1
  104391:	74 35                	je     1043c8 <kernel_longmode_entry+0xb08>
  104393:	be b0 0e 10 00       	mov    esi,0x100eb0
  104398:	bf 20 78 10 00       	mov    edi,0x107820
  10439d:	31 c0                	xor    eax,eax
  10439f:	e8 ac e9 ff ff       	call   102d50 <klog_write_fmt>
  1043a4:	eb 94                	jmp    10433a <kernel_longmode_entry+0xa7a>
  1043a6:	be 9c 0e 10 00       	mov    esi,0x100e9c
  1043ab:	bf 20 78 10 00       	mov    edi,0x107820
  1043b0:	31 c0                	xor    eax,eax
  1043b2:	e8 99 e9 ff ff       	call   102d50 <klog_write_fmt>
  1043b7:	48 8d 7b 08          	lea    rdi,[rbx+0x8]
  1043bb:	4c 89 e6             	mov    rsi,r12
  1043be:	e8 fd f2 ff ff       	call   1036c0 <parse_root_system_descriptor>
  1043c3:	e9 72 ff ff ff       	jmp    10433a <kernel_longmode_entry+0xa7a>
  1043c8:	48 8b 43 08          	mov    rax,QWORD PTR [rbx+0x8]
  1043cc:	48 89 44 24 48       	mov    QWORD PTR [rsp+0x48],rax
  1043d1:	8b 43 14             	mov    eax,DWORD PTR [rbx+0x14]
  1043d4:	89 44 24 50          	mov    DWORD PTR [rsp+0x50],eax
  1043d8:	8b 43 18             	mov    eax,DWORD PTR [rbx+0x18]
  1043db:	89 44 24 54          	mov    DWORD PTR [rsp+0x54],eax
  1043df:	0f b6 43 1c          	movzx  eax,BYTE PTR [rbx+0x1c]
  1043e3:	c0 e8 03             	shr    al,0x3
  1043e6:	88 44 24 58          	mov    BYTE PTR [rsp+0x58],al
  1043ea:	8b 43 10             	mov    eax,DWORD PTR [rbx+0x10]
  1043ed:	48 89 44 24 60       	mov    QWORD PTR [rsp+0x60],rax
  1043f2:	e9 43 ff ff ff       	jmp    10433a <kernel_longmode_entry+0xa7a>
  1043f7:	31 c0                	xor    eax,eax
  1043f9:	be b8 12 10 00       	mov    esi,0x1012b8
  1043fe:	bf 20 78 10 00       	mov    edi,0x107820
  104403:	e8 48 e9 ff ff       	call   102d50 <klog_write_fmt>
  104408:	ba fa ff ff ff       	mov    edx,0xfffffffa
  10440d:	31 c0                	xor    eax,eax
  10440f:	eb 07                	jmp    104418 <kernel_longmode_entry+0xb58>
  104411:	0f b6 90 60 1a 10 00 	movzx  edx,BYTE PTR [rax+0x101a60]
  104418:	88 90 00 10 00 00    	mov    BYTE PTR [rax+0x1000],dl
  10441e:	48 83 c0 01          	add    rax,0x1
  104422:	48 3d 90 00 00 00    	cmp    rax,0x90
  104428:	75 e7                	jne    104411 <kernel_longmode_entry+0xb51>
  10442a:	48 c7 04 25 00 20 00 	mov    QWORD PTR ds:0x2000,0x110000
  104431:	00 00 00 11 00 
  104436:	48 c7 04 25 08 20 00 	mov    QWORD PTR ds:0x2008,0x103310
  10443d:	00 10 33 10 00 
  104442:	48 8d 4c 24 08       	lea    rcx,[rsp+0x8]
  104447:	48 8b 7c 24 38       	mov    rdi,QWORD PTR [rsp+0x38]
  10444c:	48 89 e2             	mov    rdx,rsp
  10444f:	be 01 00 00 00       	mov    esi,0x1
  104454:	48 c7 44 24 08 00 00 	mov    QWORD PTR [rsp+0x8],0x0
  10445b:	00 00 
  10445d:	e8 2e ee ff ff       	call   103290 <silly_page_map>
  104462:	48 03 44 24 08       	add    rax,QWORD PTR [rsp+0x8]
  104467:	48 89 c3             	mov    rbx,rax
  10446a:	fa                   	cli    
  10446b:	b8 20 00 00 00       	mov    eax,0x20
  104470:	e6 21                	out    0x21,al
  104472:	e6 a1                	out    0xa1,al
  104474:	b8 ff ff ff ff       	mov    eax,0xffffffff
  104479:	e6 21                	out    0x21,al
  10447b:	e6 a1                	out    0xa1,al
  10447d:	be 10 13 10 00       	mov    esi,0x101310
  104482:	c7 83 f0 00 00 00 1f 	mov    DWORD PTR [rbx+0xf0],0x11f
  104489:	01 00 00 
  10448c:	bf 20 78 10 00       	mov    edi,0x107820
  104491:	31 c0                	xor    eax,eax
  104493:	e8 b8 e8 ff ff       	call   102d50 <klog_write_fmt>
  104498:	fb                   	sti    
  104499:	be 38 13 10 00       	mov    esi,0x101338
  10449e:	bf 20 78 10 00       	mov    edi,0x107820
  1044a3:	31 c0                	xor    eax,eax
  1044a5:	e8 a6 e8 ff ff       	call   102d50 <klog_write_fmt>
  1044aa:	48 8b 7c 24 30       	mov    rdi,QWORD PTR [rsp+0x30]
  1044af:	48 8d 4c 24 18       	lea    rcx,[rsp+0x18]
  1044b4:	48 8d 54 24 10       	lea    rdx,[rsp+0x10]
  1044b9:	be 01 00 00 00       	mov    esi,0x1
  1044be:	48 89 1d a3 b8 00 00 	mov    QWORD PTR [rip+0xb8a3],rbx        # 10fd68 <globals+0x8548>
  1044c5:	e8 c6 ed ff ff       	call   103290 <silly_page_map>
  1044ca:	48 8b 54 24 30       	mov    rdx,QWORD PTR [rsp+0x30]
  1044cf:	48 89 c1             	mov    rcx,rax
  1044d2:	c7 00 13 00 00 00    	mov    DWORD PTR [rax],0x13
  1044d8:	c7 40 10 00 00 00 00 	mov    DWORD PTR [rax+0x10],0x0
  1044df:	be 58 13 10 00       	mov    esi,0x101358
  1044e4:	bf 20 78 10 00       	mov    edi,0x107820
  1044e9:	31 c0                	xor    eax,eax
  1044eb:	e8 60 e8 ff ff       	call   102d50 <klog_write_fmt>
  1044f0:	48 8b 54 24 38       	mov    rdx,QWORD PTR [rsp+0x38]
  1044f5:	48 89 d9             	mov    rcx,rbx
  1044f8:	be 80 13 10 00       	mov    esi,0x101380
  1044fd:	bf 20 78 10 00       	mov    edi,0x107820
  104502:	31 c0                	xor    eax,eax
  104504:	e8 47 e8 ff ff       	call   102d50 <klog_write_fmt>
  104509:	ba 00 00 00 01       	mov    edx,0x1000000
  10450e:	be c6 0e 10 00       	mov    esi,0x100ec6
  104513:	bf 20 78 10 00       	mov    edi,0x107820
  104518:	31 c0                	xor    eax,eax
  10451a:	e8 31 e8 ff ff       	call   102d50 <klog_write_fmt>
  10451f:	31 c0                	xor    eax,eax
  104521:	ba 00 05 00 00       	mov    edx,0x500
  104526:	be d5 0e 10 00       	mov    esi,0x100ed5
  10452b:	bf 20 78 10 00       	mov    edi,0x107820
  104530:	e8 1b e8 ff ff       	call   102d50 <klog_write_fmt>
  104535:	c7 83 10 03 00 00 00 	mov    DWORD PTR [rbx+0x310],0x1000000
  10453c:	00 00 01 
  10453f:	c7 83 00 03 00 00 00 	mov    DWORD PTR [rbx+0x300],0x500
  104546:	05 00 00 
  104549:	b8 ff ff 0f 00       	mov    eax,0xfffff
  10454e:	90                   	nop
  10454f:	48 83 e8 01          	sub    rax,0x1
  104553:	75 f9                	jne    10454e <kernel_longmode_entry+0xc8e>
  104555:	31 d2                	xor    edx,edx
  104557:	b8 ff ff 0f 00       	mov    eax,0xfffff
  10455c:	81 ca 01 06 00 00    	or     edx,0x601
  104562:	90                   	nop
  104563:	48 83 e8 01          	sub    rax,0x1
  104567:	75 f9                	jne    104562 <kernel_longmode_entry+0xca2>
  104569:	48 8b 7c 24 48       	mov    rdi,QWORD PTR [rsp+0x48]
  10456e:	c7 83 10 03 00 00 00 	mov    DWORD PTR [rbx+0x310],0x1000000
  104575:	00 00 01 
  104578:	89 93 00 03 00 00    	mov    DWORD PTR [rbx+0x300],edx
  10457e:	c7 83 90 03 00 00 00 	mov    DWORD PTR [rbx+0x390],0x0
  104585:	00 00 00 
  104588:	c7 83 80 03 00 00 ff 	mov    DWORD PTR [rbx+0x380],0xffffff
  10458f:	ff ff 00 
  104592:	c7 83 e0 03 00 00 03 	mov    DWORD PTR [rbx+0x3e0],0x3
  104599:	00 00 00 
  10459c:	48 85 ff             	test   rdi,rdi
  10459f:	c7 83 20 03 00 00 20 	mov    DWORD PTR [rbx+0x320],0x20020
  1045a6:	00 02 00 
  1045a9:	0f 85 99 00 00 00    	jne    104648 <kernel_longmode_entry+0xd88>
  1045af:	81 3d 67 cf ff ff 7f 	cmp    DWORD PTR [rip+0xffffffffffffcf67],0x464c457f        # 101520 <TEST_PROGRAM_ELF>
  1045b6:	45 4c 46 
  1045b9:	74 3f                	je     1045fa <kernel_longmode_entry+0xd3a>
  1045bb:	be e4 0e 10 00       	mov    esi,0x100ee4
  1045c0:	bf 20 78 10 00       	mov    edi,0x107820
  1045c5:	31 c0                	xor    eax,eax
  1045c7:	e8 84 e7 ff ff       	call   102d50 <klog_write_fmt>
  1045cc:	0f 1f 40 00          	nop    DWORD PTR [rax+0x0]
  1045d0:	f4                   	hlt    
  1045d1:	eb fd                	jmp    1045d0 <kernel_longmode_entry+0xd10>
  1045d3:	31 c0                	xor    eax,eax
  1045d5:	be 58 0e 10 00       	mov    esi,0x100e58
  1045da:	bf 20 78 10 00       	mov    edi,0x107820
  1045df:	e8 6c e7 ff ff       	call   102d50 <klog_write_fmt>
  1045e4:	be 20 78 10 00       	mov    esi,0x107820
  1045e9:	bf 48 fd 10 00       	mov    edi,0x10fd48
  1045ee:	e8 0d ef ff ff       	call   103500 <redraw_vga_text_terminal_if_log_is_dirty>
  1045f3:	fa                   	cli    
  1045f4:	f4                   	hlt    
  1045f5:	e9 11 fd ff ff       	jmp    10430b <kernel_longmode_entry+0xa4b>
  1045fa:	31 c0                	xor    eax,eax
  1045fc:	be 02 0f 10 00       	mov    esi,0x100f02
  104601:	bf 20 78 10 00       	mov    edi,0x107820
  104606:	e8 45 e7 ff ff       	call   102d50 <klog_write_fmt>
  10460b:	48 8b 05 2e cf ff ff 	mov    rax,QWORD PTR [rip+0xffffffffffffcf2e]        # 101540 <TEST_PROGRAM_ELF+0x20>
  104612:	48 8b 15 1f cf ff ff 	mov    rdx,QWORD PTR [rip+0xffffffffffffcf1f]        # 101538 <TEST_PROGRAM_ELF+0x18>
  104619:	be 18 0f 10 00       	mov    esi,0x100f18
  10461e:	bf 20 78 10 00       	mov    edi,0x107820
  104623:	48 8d 98 20 15 10 00 	lea    rbx,[rax+0x101520]
  10462a:	31 c0                	xor    eax,eax
  10462c:	e8 1f e7 ff ff       	call   102d50 <klog_write_fmt>
  104631:	48 8b 53 10          	mov    rdx,QWORD PTR [rbx+0x10]
  104635:	be d0 13 10 00       	mov    esi,0x1013d0
  10463a:	bf 20 78 10 00       	mov    edi,0x107820
  10463f:	31 c0                	xor    eax,eax
  104641:	e8 0a e7 ff ff       	call   102d50 <klog_write_fmt>
  104646:	eb 88                	jmp    1045d0 <kernel_longmode_entry+0xd10>
  104648:	48 8d 4c 24 28       	lea    rcx,[rsp+0x28]
  10464d:	48 8d 54 24 20       	lea    rdx,[rsp+0x20]
  104652:	be 01 00 00 00       	mov    esi,0x1
  104657:	e8 34 ec ff ff       	call   103290 <silly_page_map>
  10465c:	48 89 c3             	mov    rbx,rax
  10465f:	48 8b 44 24 48       	mov    rax,QWORD PTR [rsp+0x48]
  104664:	48 8d 4c 24 28       	lea    rcx,[rsp+0x28]
  104669:	48 8d 54 24 20       	lea    rdx,[rsp+0x20]
  10466e:	be 01 00 00 00       	mov    esi,0x1
  104673:	48 8d b8 00 00 20 00 	lea    rdi,[rax+0x200000]
  10467a:	e8 11 ec ff ff       	call   103290 <silly_page_map>
  10467f:	8b 54 24 54          	mov    edx,DWORD PTR [rsp+0x54]
  104683:	31 c9                	xor    ecx,ecx
  104685:	85 d2                	test   edx,edx
  104687:	0f 84 22 ff ff ff    	je     1045af <kernel_longmode_entry+0xcef>
  10468d:	8b 44 24 50          	mov    eax,DWORD PTR [rsp+0x50]
  104691:	31 d2                	xor    edx,edx
  104693:	85 c0                	test   eax,eax
  104695:	74 30                	je     1046c7 <kernel_longmode_entry+0xe07>
  104697:	0f b6 44 24 58       	movzx  eax,BYTE PTR [rsp+0x58]
  10469c:	48 89 ce             	mov    rsi,rcx
  10469f:	48 0f af 74 24 60    	imul   rsi,QWORD PTR [rsp+0x60]
  1046a5:	48 0f af c2          	imul   rax,rdx
  1046a9:	48 83 c2 01          	add    rdx,0x1
  1046ad:	48 01 f0             	add    rax,rsi
  1046b0:	c6 04 03 00          	mov    BYTE PTR [rbx+rax*1],0x0
  1046b4:	c6 44 03 01 ff       	mov    BYTE PTR [rbx+rax*1+0x1],0xff
  1046b9:	c6 44 03 02 ff       	mov    BYTE PTR [rbx+rax*1+0x2],0xff
  1046be:	8b 44 24 50          	mov    eax,DWORD PTR [rsp+0x50]
  1046c2:	48 39 d0             	cmp    rax,rdx
  1046c5:	77 d0                	ja     104697 <kernel_longmode_entry+0xdd7>
  1046c7:	8b 44 24 54          	mov    eax,DWORD PTR [rsp+0x54]
  1046cb:	48 83 c1 01          	add    rcx,0x1
  1046cf:	48 39 c8             	cmp    rax,rcx
  1046d2:	77 b9                	ja     10468d <kernel_longmode_entry+0xdcd>
  1046d4:	e9 d6 fe ff ff       	jmp    1045af <kernel_longmode_entry+0xcef>
  1046d9:	0f 1f 80 00 00 00 00 	nop    DWORD PTR [rax+0x0]

00000000001046e0 <irq_handler_keyboard>:
  1046e0:	e4 64                	in     al,0x64
  1046e2:	a8 01                	test   al,0x1
  1046e4:	74 44                	je     10472a <irq_handler_keyboard+0x4a>
  1046e6:	e4 60                	in     al,0x60
  1046e8:	84 c0                	test   al,al
  1046ea:	78 74                	js     104760 <irq_handler_keyboard+0x80>
  1046ec:	3c 0e                	cmp    al,0xe
  1046ee:	74 50                	je     104740 <irq_handler_keyboard+0x60>
  1046f0:	8d 50 b8             	lea    edx,[rax-0x48]
  1046f3:	81 e2 f7 00 00 00    	and    edx,0xf7
  1046f9:	74 2f                	je     10472a <irq_handler_keyboard+0x4a>
  1046fb:	3c 1c                	cmp    al,0x1c
  1046fd:	74 2b                	je     10472a <irq_handler_keyboard+0x4a>
  1046ff:	48 8b 15 32 b6 00 00 	mov    rdx,QWORD PTR [rip+0xb632]        # 10fd38 <globals+0x8518>
  104706:	48 81 fa 00 01 00 00 	cmp    rdx,0x100
  10470d:	77 51                	ja     104760 <irq_handler_keyboard+0x80>
  10470f:	0f be c0             	movsx  eax,al
  104712:	48 8d 4a 01          	lea    rcx,[rdx+0x1]
  104716:	0f b6 80 80 4c 10 00 	movzx  eax,BYTE PTR [rax+0x104c80]
  10471d:	48 89 0d 14 b6 00 00 	mov    QWORD PTR [rip+0xb614],rcx        # 10fd38 <globals+0x8518>
  104724:	88 82 38 fc 10 00    	mov    BYTE PTR [rdx+0x10fc38],al
  10472a:	be 20 78 10 00       	mov    esi,0x107820
  10472f:	bf 48 fd 10 00       	mov    edi,0x10fd48
  104734:	e9 c7 ed ff ff       	jmp    103500 <redraw_vga_text_terminal_if_log_is_dirty>
  104739:	0f 1f 80 00 00 00 00 	nop    DWORD PTR [rax+0x0]
  104740:	48 8b 05 f1 b5 00 00 	mov    rax,QWORD PTR [rip+0xb5f1]        # 10fd38 <globals+0x8518>
  104747:	48 85 c0             	test   rax,rax
  10474a:	74 de                	je     10472a <irq_handler_keyboard+0x4a>
  10474c:	c6 80 38 fc 10 00 00 	mov    BYTE PTR [rax+0x10fc38],0x0
  104753:	48 83 e8 01          	sub    rax,0x1
  104757:	48 89 05 da b5 00 00 	mov    QWORD PTR [rip+0xb5da],rax        # 10fd38 <globals+0x8518>
  10475e:	eb ca                	jmp    10472a <irq_handler_keyboard+0x4a>
  104760:	f3 c3                	repz ret 
  104762:	0f 1f 40 00          	nop    DWORD PTR [rax+0x0]
  104766:	66 2e 0f 1f 84 00 00 	nop    WORD PTR cs:[rax+rax*1+0x0]
  10476d:	00 00 00 

0000000000104770 <irq_handler_pit>:
  104770:	be 20 78 10 00       	mov    esi,0x107820
  104775:	bf 48 fd 10 00       	mov    edi,0x10fd48
  10477a:	e9 81 ed ff ff       	jmp    103500 <redraw_vga_text_terminal_if_log_is_dirty>
  10477f:	90                   	nop

0000000000104780 <isr_common_handler>:
  104780:	41 56                	push   r14
  104782:	41 55                	push   r13
  104784:	31 c0                	xor    eax,eax
  104786:	41 54                	push   r12
  104788:	55                   	push   rbp
  104789:	be 48 14 10 00       	mov    esi,0x101448
  10478e:	53                   	push   rbx
  10478f:	48 8b 6c 24 48       	mov    rbp,QWORD PTR [rsp+0x48]
  104794:	bf 20 78 10 00       	mov    edi,0x107820
  104799:	48 8b 5c 24 50       	mov    rbx,QWORD PTR [rsp+0x50]
  10479e:	48 89 ea             	mov    rdx,rbp
  1047a1:	e8 aa e5 ff ff       	call   102d50 <klog_write_fmt>
  1047a6:	31 c0                	xor    eax,eax
  1047a8:	48 89 da             	mov    rdx,rbx
  1047ab:	be f2 0f 10 00       	mov    esi,0x100ff2
  1047b0:	bf 20 78 10 00       	mov    edi,0x107820
  1047b5:	e8 96 e5 ff ff       	call   102d50 <klog_write_fmt>
  1047ba:	48 8b 54 24 5c       	mov    rdx,QWORD PTR [rsp+0x5c]
  1047bf:	31 c0                	xor    eax,eax
  1047c1:	be 01 10 10 00       	mov    esi,0x101001
  1047c6:	bf 20 78 10 00       	mov    edi,0x107820
  1047cb:	e8 80 e5 ff ff       	call   102d50 <klog_write_fmt>
  1047d0:	48 83 fd 0e          	cmp    rbp,0xe
  1047d4:	74 0a                	je     1047e0 <isr_common_handler+0x60>
  1047d6:	5b                   	pop    rbx
  1047d7:	5d                   	pop    rbp
  1047d8:	41 5c                	pop    r12
  1047da:	41 5d                	pop    r13
  1047dc:	41 5e                	pop    r14
  1047de:	c3                   	ret    
  1047df:	90                   	nop
  1047e0:	0f 20 d5             	mov    rbp,cr2
  1047e3:	ba 33 0f 10 00       	mov    edx,0x100f33
  1047e8:	f6 c3 10             	test   bl,0x10
  1047eb:	b8 4f 0f 10 00       	mov    eax,0x100f4f
  1047f0:	48 0f 45 c2          	cmovne rax,rdx
  1047f4:	49 89 dd             	mov    r13,rbx
  1047f7:	f6 c3 08             	test   bl,0x8
  1047fa:	ba 65 0f 10 00       	mov    edx,0x100f65
  1047ff:	41 b9 f8 13 10 00    	mov    r9d,0x1013f8
  104805:	41 b8 7e 0f 10 00    	mov    r8d,0x100f7e
  10480b:	4c 0f 44 ca          	cmove  r9,rdx
  10480f:	41 83 e5 04          	and    r13d,0x4
  104813:	ba 96 0f 10 00       	mov    edx,0x100f96
  104818:	4c 0f 44 c2          	cmove  r8,rdx
  10481c:	b9 b0 0f 10 00       	mov    ecx,0x100fb0
  104821:	f6 c3 02             	test   bl,0x2
  104824:	ba c6 0f 10 00       	mov    edx,0x100fc6
  104829:	55                   	push   rbp
  10482a:	be dc 0f 10 00       	mov    esi,0x100fdc
  10482f:	50                   	push   rax
  104830:	48 0f 44 ca          	cmove  rcx,rdx
  104834:	49 89 ee             	mov    r14,rbp
  104837:	83 e3 01             	and    ebx,0x1
  10483a:	ba 20 14 10 00       	mov    edx,0x101420
  10483f:	bf 20 78 10 00       	mov    edi,0x107820
  104844:	48 0f 44 d6          	cmove  rdx,rsi
  104848:	49 89 ec             	mov    r12,rbp
  10484b:	31 c0                	xor    eax,eax
  10484d:	be 68 14 10 00       	mov    esi,0x101468
  104852:	49 c1 ee 27          	shr    r14,0x27
  104856:	49 c1 ec 1e          	shr    r12,0x1e
  10485a:	e8 f1 e4 ff ff       	call   102d50 <klog_write_fmt>
  10485f:	41 81 e6 ff 01 00 00 	and    r14d,0x1ff
  104866:	31 c0                	xor    eax,eax
  104868:	48 89 ea             	mov    rdx,rbp
  10486b:	be 09 10 10 00       	mov    esi,0x101009
  104870:	bf 20 78 10 00       	mov    edi,0x107820
  104875:	48 89 eb             	mov    rbx,rbp
  104878:	e8 d3 e4 ff ff       	call   102d50 <klog_write_fmt>
  10487d:	41 81 e4 ff 01 00 00 	and    r12d,0x1ff
  104884:	31 c0                	xor    eax,eax
  104886:	48 c1 eb 15          	shr    rbx,0x15
  10488a:	4c 89 f2             	mov    rdx,r14
  10488d:	be 1e 10 10 00       	mov    esi,0x10101e
  104892:	bf 20 78 10 00       	mov    edi,0x107820
  104897:	e8 b4 e4 ff ff       	call   102d50 <klog_write_fmt>
  10489c:	81 e3 ff 01 00 00    	and    ebx,0x1ff
  1048a2:	31 c0                	xor    eax,eax
  1048a4:	4c 89 e2             	mov    rdx,r12
  1048a7:	be 2c 10 10 00       	mov    esi,0x10102c
  1048ac:	bf 20 78 10 00       	mov    edi,0x107820
  1048b1:	e8 9a e4 ff ff       	call   102d50 <klog_write_fmt>
  1048b6:	31 c0                	xor    eax,eax
  1048b8:	48 89 da             	mov    rdx,rbx
  1048bb:	be 3a 10 10 00       	mov    esi,0x10103a
  1048c0:	bf 20 78 10 00       	mov    edi,0x107820
  1048c5:	e8 86 e4 ff ff       	call   102d50 <klog_write_fmt>
  1048ca:	48 89 ea             	mov    rdx,rbp
  1048cd:	31 c0                	xor    eax,eax
  1048cf:	be 48 10 10 00       	mov    esi,0x101048
  1048d4:	81 e2 ff ff 0f 00    	and    edx,0xfffff
  1048da:	bf 20 78 10 00       	mov    edi,0x107820
  1048df:	e8 6c e4 ff ff       	call   102d50 <klog_write_fmt>
  1048e4:	31 c0                	xor    eax,eax
  1048e6:	be 54 10 10 00       	mov    esi,0x101054
  1048eb:	bf 20 78 10 00       	mov    edi,0x107820
  1048f0:	e8 5b e4 ff ff       	call   102d50 <klog_write_fmt>
  1048f5:	4a 8b 3c f5 00 00 11 	mov    rdi,QWORD PTR [r14*8+0x110000]
  1048fc:	00 
  1048fd:	e8 4e ea ff ff       	call   103350 <print_page_table_entry_info>
  104902:	31 c0                	xor    eax,eax
  104904:	be 63 10 10 00       	mov    esi,0x101063
  104909:	bf 20 78 10 00       	mov    edi,0x107820
  10490e:	e8 3d e4 ff ff       	call   102d50 <klog_write_fmt>
  104913:	4a 8b 3c e5 00 10 11 	mov    rdi,QWORD PTR [r12*8+0x111000]
  10491a:	00 
  10491b:	e8 30 ea ff ff       	call   103350 <print_page_table_entry_info>
  104920:	31 c0                	xor    eax,eax
  104922:	be 72 10 10 00       	mov    esi,0x101072
  104927:	bf 20 78 10 00       	mov    edi,0x107820
  10492c:	e8 1f e4 ff ff       	call   102d50 <klog_write_fmt>
  104931:	48 8b 3c dd 00 20 11 	mov    rdi,QWORD PTR [rbx*8+0x112000]
  104938:	00 
  104939:	e8 12 ea ff ff       	call   103350 <print_page_table_entry_info>
  10493e:	4d 85 ed             	test   r13,r13
  104941:	58                   	pop    rax
  104942:	5a                   	pop    rdx
  104943:	74 2b                	je     104970 <isr_common_handler+0x1f0>
  104945:	be c0 14 10 00       	mov    esi,0x1014c0
  10494a:	bf 20 78 10 00       	mov    edi,0x107820
  10494f:	31 c0                	xor    eax,eax
  104951:	e8 fa e3 ff ff       	call   102d50 <klog_write_fmt>
  104956:	be 20 78 10 00       	mov    esi,0x107820
  10495b:	bf 48 fd 10 00       	mov    edi,0x10fd48
  104960:	e8 9b eb ff ff       	call   103500 <redraw_vga_text_terminal_if_log_is_dirty>
  104965:	f4                   	hlt    
  104966:	5b                   	pop    rbx
  104967:	5d                   	pop    rbp
  104968:	41 5c                	pop    r12
  10496a:	41 5d                	pop    r13
  10496c:	41 5e                	pop    r14
  10496e:	c3                   	ret    
  10496f:	90                   	nop
  104970:	8b 2d 8a 16 00 00    	mov    ebp,DWORD PTR [rip+0x168a]        # 106000 <g_current_page_index>
  104976:	48 85 ed             	test   rbp,rbp
  104979:	74 db                	je     104956 <isr_common_handler+0x1d6>
  10497b:	31 db                	xor    ebx,ebx
  10497d:	0f 1f 00             	nop    DWORD PTR [rax]
  104980:	48 8b 0c dd 00 20 11 	mov    rcx,QWORD PTR [rbx*8+0x112000]
  104987:	00 
  104988:	48 89 da             	mov    rdx,rbx
  10498b:	31 c0                	xor    eax,eax
  10498d:	48 c1 e2 15          	shl    rdx,0x15
  104991:	be 98 14 10 00       	mov    esi,0x101498
  104996:	bf 20 78 10 00       	mov    edi,0x107820
  10499b:	48 83 c3 01          	add    rbx,0x1
  10499f:	48 81 e1 00 f0 ff ff 	and    rcx,0xfffffffffffff000
  1049a6:	e8 a5 e3 ff ff       	call   102d50 <klog_write_fmt>
  1049ab:	48 39 eb             	cmp    rbx,rbp
  1049ae:	75 d0                	jne    104980 <isr_common_handler+0x200>
  1049b0:	eb a4                	jmp    104956 <isr_common_handler+0x1d6>
  1049b2:	66 2e 0f 1f 84 00 00 	nop    WORD PTR cs:[rax+rax*1+0x0]
  1049b9:	00 00 00 
  1049bc:	0f 1f 40 00          	nop    DWORD PTR [rax+0x0]

00000000001049c0 <asm_double_fault_handler>:
  1049c0:	fa                   	cli    
  1049c1:	c7 04 25 00 80 0b 00 	mov    DWORD PTR ds:0xb8000,0x2064
  1049c8:	64 20 00 00 
  1049cc:	c7 04 25 04 80 0b 00 	mov    DWORD PTR ds:0xb8004,0x2066
  1049d3:	66 20 00 00 
  1049d7:	c7 04 25 08 80 0b 00 	mov    DWORD PTR ds:0xb8008,0x206c
  1049de:	6c 20 00 00 
  1049e2:	f4                   	hlt    
  1049e3:	48 cf                	iretq  

00000000001049e5 <asm_debug_handler>:
  1049e5:	fa                   	cli    
  1049e6:	c7 04 25 00 80 0b 00 	mov    DWORD PTR ds:0xb8000,0x61
  1049ed:	61 00 00 00 
  1049f1:	c7 04 25 04 80 0b 00 	mov    DWORD PTR ds:0xb8004,0x62
  1049f8:	62 00 00 00 
  1049fc:	c7 04 25 08 80 0b 00 	mov    DWORD PTR ds:0xb8008,0x63
  104a03:	63 00 00 00 
  104a07:	f4                   	hlt    
  104a08:	48 cf                	iretq  

0000000000104a0a <asm_irq_common_handler>:
  104a0a:	50                   	push   rax
  104a0b:	53                   	push   rbx
  104a0c:	51                   	push   rcx
  104a0d:	e8 5e ea ff ff       	call   103470 <irq_common_handler>
  104a12:	59                   	pop    rcx
  104a13:	5b                   	pop    rbx
  104a14:	58                   	pop    rax
  104a15:	83 c4 08             	add    esp,0x8
  104a18:	fb                   	sti    
  104a19:	48 cf                	iretq  

0000000000104a1b <asm_isr_common_handler>:
  104a1b:	50                   	push   rax
  104a1c:	53                   	push   rbx
  104a1d:	51                   	push   rcx
  104a1e:	e8 5d fd ff ff       	call   104780 <isr_common_handler>
  104a23:	59                   	pop    rcx
  104a24:	5b                   	pop    rbx
  104a25:	58                   	pop    rax
  104a26:	83 c4 10             	add    esp,0x10
  104a29:	fb                   	sti    
  104a2a:	48 cf                	iretq  

0000000000104a2c <asm_isr0>:
  104a2c:	fa                   	cli    
  104a2d:	6a 00                	push   0x0
  104a2f:	6a 00                	push   0x0
  104a31:	eb e8                	jmp    104a1b <asm_isr_common_handler>

0000000000104a33 <asm_isr1>:
  104a33:	fa                   	cli    
  104a34:	6a 00                	push   0x0
  104a36:	6a 01                	push   0x1
  104a38:	eb e1                	jmp    104a1b <asm_isr_common_handler>

0000000000104a3a <asm_isr2>:
  104a3a:	fa                   	cli    
  104a3b:	6a 00                	push   0x0
  104a3d:	6a 02                	push   0x2
  104a3f:	eb da                	jmp    104a1b <asm_isr_common_handler>

0000000000104a41 <asm_isr3>:
  104a41:	fa                   	cli    
  104a42:	6a 00                	push   0x0
  104a44:	6a 03                	push   0x3
  104a46:	eb d3                	jmp    104a1b <asm_isr_common_handler>

0000000000104a48 <asm_isr4>:
  104a48:	fa                   	cli    
  104a49:	6a 00                	push   0x0
  104a4b:	6a 04                	push   0x4
  104a4d:	eb cc                	jmp    104a1b <asm_isr_common_handler>

0000000000104a4f <asm_isr5>:
  104a4f:	fa                   	cli    
  104a50:	6a 00                	push   0x0
  104a52:	6a 05                	push   0x5
  104a54:	eb c5                	jmp    104a1b <asm_isr_common_handler>

0000000000104a56 <asm_isr6>:
  104a56:	fa                   	cli    
  104a57:	6a 00                	push   0x0
  104a59:	6a 06                	push   0x6
  104a5b:	eb be                	jmp    104a1b <asm_isr_common_handler>

0000000000104a5d <asm_isr7>:
  104a5d:	fa                   	cli    
  104a5e:	6a 00                	push   0x0
  104a60:	6a 07                	push   0x7
  104a62:	eb b7                	jmp    104a1b <asm_isr_common_handler>

0000000000104a64 <asm_isr8>:
  104a64:	fa                   	cli    
  104a65:	6a 08                	push   0x8
  104a67:	eb b2                	jmp    104a1b <asm_isr_common_handler>

0000000000104a69 <asm_isr9>:
  104a69:	fa                   	cli    
  104a6a:	6a 00                	push   0x0
  104a6c:	6a 09                	push   0x9
  104a6e:	eb ab                	jmp    104a1b <asm_isr_common_handler>

0000000000104a70 <asm_isr10>:
  104a70:	fa                   	cli    
  104a71:	6a 0a                	push   0xa
  104a73:	eb a6                	jmp    104a1b <asm_isr_common_handler>

0000000000104a75 <asm_isr11>:
  104a75:	fa                   	cli    
  104a76:	6a 0b                	push   0xb
  104a78:	eb a1                	jmp    104a1b <asm_isr_common_handler>

0000000000104a7a <asm_isr12>:
  104a7a:	fa                   	cli    
  104a7b:	6a 0c                	push   0xc
  104a7d:	eb 9c                	jmp    104a1b <asm_isr_common_handler>

0000000000104a7f <asm_isr13>:
  104a7f:	fa                   	cli    
  104a80:	6a 0d                	push   0xd
  104a82:	eb 97                	jmp    104a1b <asm_isr_common_handler>

0000000000104a84 <asm_isr14>:
  104a84:	fa                   	cli    
  104a85:	6a 0e                	push   0xe
  104a87:	eb 92                	jmp    104a1b <asm_isr_common_handler>

0000000000104a89 <asm_isr15>:
  104a89:	fa                   	cli    
  104a8a:	6a 00                	push   0x0
  104a8c:	6a 0f                	push   0xf
  104a8e:	eb 8b                	jmp    104a1b <asm_isr_common_handler>

0000000000104a90 <asm_isr16>:
  104a90:	fa                   	cli    
  104a91:	6a 00                	push   0x0
  104a93:	6a 10                	push   0x10
  104a95:	eb 84                	jmp    104a1b <asm_isr_common_handler>

0000000000104a97 <asm_isr17>:
  104a97:	fa                   	cli    
  104a98:	6a 11                	push   0x11
  104a9a:	e9 7c ff ff ff       	jmp    104a1b <asm_isr_common_handler>

0000000000104a9f <asm_isr18>:
  104a9f:	fa                   	cli    
  104aa0:	6a 00                	push   0x0
  104aa2:	6a 12                	push   0x12
  104aa4:	e9 72 ff ff ff       	jmp    104a1b <asm_isr_common_handler>

0000000000104aa9 <asm_isr19>:
  104aa9:	fa                   	cli    
  104aaa:	6a 00                	push   0x0
  104aac:	6a 13                	push   0x13
  104aae:	e9 68 ff ff ff       	jmp    104a1b <asm_isr_common_handler>

0000000000104ab3 <asm_isr20>:
  104ab3:	fa                   	cli    
  104ab4:	6a 00                	push   0x0
  104ab6:	6a 14                	push   0x14
  104ab8:	e9 5e ff ff ff       	jmp    104a1b <asm_isr_common_handler>

0000000000104abd <asm_isr21>:
  104abd:	fa                   	cli    
  104abe:	6a 00                	push   0x0
  104ac0:	6a 15                	push   0x15
  104ac2:	e9 54 ff ff ff       	jmp    104a1b <asm_isr_common_handler>

0000000000104ac7 <asm_isr22>:
  104ac7:	fa                   	cli    
  104ac8:	6a 00                	push   0x0
  104aca:	6a 16                	push   0x16
  104acc:	e9 4a ff ff ff       	jmp    104a1b <asm_isr_common_handler>

0000000000104ad1 <asm_isr23>:
  104ad1:	fa                   	cli    
  104ad2:	6a 00                	push   0x0
  104ad4:	6a 17                	push   0x17
  104ad6:	e9 40 ff ff ff       	jmp    104a1b <asm_isr_common_handler>

0000000000104adb <asm_isr24>:
  104adb:	fa                   	cli    
  104adc:	6a 00                	push   0x0
  104ade:	6a 18                	push   0x18
  104ae0:	e9 36 ff ff ff       	jmp    104a1b <asm_isr_common_handler>

0000000000104ae5 <asm_isr25>:
  104ae5:	fa                   	cli    
  104ae6:	6a 00                	push   0x0
  104ae8:	6a 19                	push   0x19
  104aea:	e9 2c ff ff ff       	jmp    104a1b <asm_isr_common_handler>

0000000000104aef <asm_isr26>:
  104aef:	fa                   	cli    
  104af0:	6a 00                	push   0x0
  104af2:	6a 1a                	push   0x1a
  104af4:	e9 22 ff ff ff       	jmp    104a1b <asm_isr_common_handler>

0000000000104af9 <asm_isr27>:
  104af9:	fa                   	cli    
  104afa:	6a 00                	push   0x0
  104afc:	6a 1b                	push   0x1b
  104afe:	e9 18 ff ff ff       	jmp    104a1b <asm_isr_common_handler>

0000000000104b03 <asm_isr28>:
  104b03:	fa                   	cli    
  104b04:	6a 00                	push   0x0
  104b06:	6a 1c                	push   0x1c
  104b08:	e9 0e ff ff ff       	jmp    104a1b <asm_isr_common_handler>

0000000000104b0d <asm_isr29>:
  104b0d:	fa                   	cli    
  104b0e:	6a 00                	push   0x0
  104b10:	6a 1d                	push   0x1d
  104b12:	e9 04 ff ff ff       	jmp    104a1b <asm_isr_common_handler>

0000000000104b17 <asm_isr30>:
  104b17:	fa                   	cli    
  104b18:	6a 00                	push   0x0
  104b1a:	6a 1e                	push   0x1e
  104b1c:	e9 fa fe ff ff       	jmp    104a1b <asm_isr_common_handler>

0000000000104b21 <asm_isr31>:
  104b21:	fa                   	cli    
  104b22:	6a 00                	push   0x0
  104b24:	6a 1f                	push   0x1f
  104b26:	e9 f0 fe ff ff       	jmp    104a1b <asm_isr_common_handler>

0000000000104b2b <asm_irq0>:
  104b2b:	fa                   	cli    
  104b2c:	6a 00                	push   0x0
  104b2e:	e9 d7 fe ff ff       	jmp    104a0a <asm_irq_common_handler>

0000000000104b33 <asm_irq1>:
  104b33:	fa                   	cli    
  104b34:	6a 01                	push   0x1
  104b36:	e9 cf fe ff ff       	jmp    104a0a <asm_irq_common_handler>

0000000000104b3b <asm_longmode_entry>:
  104b3b:	66 b8 10 00          	mov    ax,0x10
  104b3f:	8e d8                	mov    ds,eax
  104b41:	8e c0                	mov    es,eax
  104b43:	8e e0                	mov    fs,eax
  104b45:	8e e8                	mov    gs,eax
  104b47:	66 b8 00 00          	mov    ax,0x0
  104b4b:	8e d0                	mov    ss,eax
  104b4d:	5f                   	pop    rdi
  104b4e:	5e                   	pop    rsi
  104b4f:	e8 6c ed ff ff       	call   1038c0 <kernel_longmode_entry>
  104b54:	f4                   	hlt    
  104b55:	66 2e 0f 1f 84 00 00 	nop    WORD PTR cs:[rax+rax*1+0x0]
  104b5c:	00 00 00 
  104b5f:	90                   	nop

0000000000104b60 <start>:
  104b60:	66 87 db             	xchg   bx,bx
  104b63:	fa                   	cli    
  104b64:	bc 02 50 11 00       	mov    esp,0x115002
  104b69:	6a 00                	push   0x0
  104b6b:	53                   	push   rbx
  104b6c:	6a 00                	push   0x0
  104b6e:	50                   	push   rax
  104b6f:	89 df                	mov    edi,ebx
  104b71:	e8 9b 00 00 00       	call   104c11 <is_multiboot2_bootloader>
  104b76:	e8 a2 00 00 00       	call   104c1d <is_cpuid_supported>
  104b7b:	e8 b5 00 00 00       	call   104c35 <is_longmode_supported>
  104b80:	e8 37 00 00 00       	call   104bbc <setup_paging_tables>
  104b85:	e8 5c 00 00 00       	call   104be6 <enable_paging>
  104b8a:	0f 20 c0             	mov    rax,cr0
  104b8d:	66 83 e0 fb          	and    ax,0xfffb
  104b91:	66 83 c8 02          	or     ax,0x2
  104b95:	0f 22 c0             	mov    cr0,rax
  104b98:	0f 20 e0             	mov    rax,cr4
  104b9b:	66 0d 00 06          	or     ax,0x600
  104b9f:	0f 22 e0             	mov    cr4,rax
  104ba2:	0f 01 15 60 1e 10 00 	lgdt   [rip+0x101e60]        # 206a09 <stack_top+0xf1a07>
  104ba9:	66 b8 10 00          	mov    ax,0x10
  104bad:	8e d8                	mov    ds,eax
  104baf:	8e c0                	mov    es,eax
  104bb1:	8e e0                	mov    fs,eax
  104bb3:	8e e8                	mov    gs,eax
  104bb5:	ea                   	(bad)  
  104bb6:	3b 4b 10             	cmp    ecx,DWORD PTR [rbx+0x10]
  104bb9:	00 08                	add    BYTE PTR [rax],cl
	...

0000000000104bbc <setup_paging_tables>:
  104bbc:	b8 00 10 11 00       	mov    eax,0x111000
  104bc1:	83 c8 03             	or     eax,0x3
  104bc4:	a3 00 00 11 00 b8 00 	movabs ds:0x112000b800110000,eax
  104bcb:	20 11 
  104bcd:	00 83 c8 03 a3 00    	add    BYTE PTR [rbx+0xa303c8],al
  104bd3:	10 11                	adc    BYTE PTR [rcx],dl
  104bd5:	00 b8 00 00 00 00    	add    BYTE PTR [rax+0x0],bh
  104bdb:	0d 83 00 00 00       	or     eax,0x83
  104be0:	a3                   	.byte 0xa3
  104be1:	00 20                	add    BYTE PTR [rax],ah
  104be3:	11 00                	adc    DWORD PTR [rax],eax
  104be5:	c3                   	ret    

0000000000104be6 <enable_paging>:
  104be6:	b8 00 00 11 00       	mov    eax,0x110000
  104beb:	0f 22 d8             	mov    cr3,rax
  104bee:	0f 20 e0             	mov    rax,cr4
  104bf1:	83 c8 20             	or     eax,0x20
  104bf4:	0f 22 e0             	mov    cr4,rax
  104bf7:	b9 80 00 00 c0       	mov    ecx,0xc0000080
  104bfc:	0f 32                	rdmsr  
  104bfe:	0d 00 01 00 00       	or     eax,0x100
  104c03:	0f 30                	wrmsr  
  104c05:	0f 20 c0             	mov    rax,cr0
  104c08:	0d 00 00 00 80       	or     eax,0x80000000
  104c0d:	0f 22 c0             	mov    cr0,rax
  104c10:	c3                   	ret    

0000000000104c11 <is_multiboot2_bootloader>:
  104c11:	3d 89 62 d7 36       	cmp    eax,0x36d76289
  104c16:	75 01                	jne    104c19 <is_multiboot2_bootloader.no_multiboot>
  104c18:	c3                   	ret    

0000000000104c19 <is_multiboot2_bootloader.no_multiboot>:
  104c19:	b0 30                	mov    al,0x30
  104c1b:	eb 3a                	jmp    104c57 <error_handler>

0000000000104c1d <is_cpuid_supported>:
  104c1d:	9c                   	pushf  
  104c1e:	58                   	pop    rax
  104c1f:	89 c1                	mov    ecx,eax
  104c21:	35 00 00 20 00       	xor    eax,0x200000
  104c26:	50                   	push   rax
  104c27:	9d                   	popf   
  104c28:	9c                   	pushf  
  104c29:	58                   	pop    rax
  104c2a:	51                   	push   rcx
  104c2b:	9d                   	popf   
  104c2c:	31 c8                	xor    eax,ecx
  104c2e:	74 01                	je     104c31 <is_cpuid_supported.no_cpuid>
  104c30:	c3                   	ret    

0000000000104c31 <is_cpuid_supported.no_cpuid>:
  104c31:	b0 37                	mov    al,0x37
  104c33:	eb 22                	jmp    104c57 <error_handler>

0000000000104c35 <is_longmode_supported>:
  104c35:	b8 00 00 00 80       	mov    eax,0x80000000
  104c3a:	0f a2                	cpuid  
  104c3c:	3d 01 00 00 80       	cmp    eax,0x80000001
  104c41:	72 10                	jb     104c53 <is_longmode_supported.no_longmode>
  104c43:	b8 01 00 00 80       	mov    eax,0x80000001
  104c48:	0f a2                	cpuid  
  104c4a:	f7 c2 00 00 00 20    	test   edx,0x20000000
  104c50:	74 01                	je     104c53 <is_longmode_supported.no_longmode>
  104c52:	c3                   	ret    

0000000000104c53 <is_longmode_supported.no_longmode>:
  104c53:	b0 32                	mov    al,0x32
  104c55:	eb 00                	jmp    104c57 <error_handler>

0000000000104c57 <error_handler>:
  104c57:	c7 05 00 80 0b 00 45 	mov    DWORD PTR [rip+0xb8000],0x4f524f45        # 1bcc61 <stack_top+0xa7c5f>
  104c5e:	4f 52 4f 
  104c61:	c7 05 04 80 0b 00 52 	mov    DWORD PTR [rip+0xb8004],0x4f3a4f52        # 1bcc6f <stack_top+0xa7c6d>
  104c68:	4f 3a 4f 
  104c6b:	c7 05 08 80 0b 00 20 	mov    DWORD PTR [rip+0xb8008],0x4f204f20        # 1bcc7d <stack_top+0xa7c7b>
  104c72:	4f 20 4f 
  104c75:	a2                   	.byte 0xa2
  104c76:	0a                   	.byte 0xa
  104c77:	80 0b 00             	or     BYTE PTR [rbx],0x0
  104c7a:	f4                   	hlt    
